
Disassembly of section PRG (20.prg):
    2000:	20 3b 20    	jsr	$203B
    2003:	8d 03 00    	sta	$0003
    2006:	8e 04 00    	stx	$0004
    2009:	a9 00       	lda	#$00
    200b:	a2 00       	ldx	#$00
    200d:	8d 05 00    	sta	$0005
    2010:	8e 06 00    	stx	$0006
    2013:	ad 03 00    	lda	$0003
    2016:	ae 04 00    	ldx	$0004
    2019:	cd 05 00    	cmp	$0005
    201c:	d0 04       	bne	$2022
    201e:	8a          	txa	
    201f:	cd 06 00    	cmp	$0006
    2022:	f0 04       	beq	$2028
    2024:	a9 01       	lda	#$01
    2026:	80 02       	bra	$202A
    2028:	a9 00       	lda	#$00
    202a:	a2 00       	ldx	#$00
    202c:	c9 00       	cmp	#$00
    202e:	f0 08       	beq	$2038
    2030:	20 da 21    	jsr	$21DA
    2033:	20 0d 2e    	jsr	$2E0D
    2036:	80 fe       	bra	$2036
    2038:	80 c6       	bra	$2000
    203a:	60          	rts	
    203b:	20 e4 ff    	jsr	$FFE4
    203e:	c9 51       	cmp	#$51
    2040:	f0 05       	beq	$2047
    2042:	a9 00       	lda	#$00
    2044:	a2 00       	ldx	#$00
    2046:	60          	rts	
    2047:	a9 01       	lda	#$01
    2049:	a2 00       	ldx	#$00
    204b:	60          	rts	
    204c:	78          	sei	
    204d:	a9 41       	lda	#$41
    204f:	85 00       	sta	$00
    2051:	a9 47       	lda	#$47
    2053:	8d 2f d0    	sta	$D02F
    2056:	a9 53       	lda	#$53
    2058:	8d 2f d0    	sta	$D02F
    205b:	a9 00       	lda	#$00
    205d:	8d 20 d0    	sta	$D020
    2060:	8d 21 d0    	sta	$D021
    2063:	ad 5d d0    	lda	$D05D
    2066:	09 80       	ora	#$80
    2068:	8d 5d d0    	sta	$D05D
    206b:	a9 00       	lda	#$00
    206d:	85 fb       	sta	$FB
    206f:	a9 c0       	lda	#$C0
    2071:	85 fc       	sta	$FC
    2073:	a9 00       	lda	#$00
    2075:	85 fd       	sta	$FD
    2077:	a9 10       	lda	#$10
    2079:	85 fe       	sta	$FE
    207b:	a9 e8       	lda	#$E8
    207d:	85 20       	sta	$20
    207f:	a9 03       	lda	#$03
    2081:	85 21       	sta	$21
    2083:	a0 00       	ldy	#$00
    2085:	a5 fd       	lda	$FD
    2087:	91 fb       	sta	($FB),y
    2089:	c8          	iny	
    208a:	a5 fe       	lda	$FE
    208c:	91 fb       	sta	($FB),y
    208e:	e6 fd       	inc	$FD
    2090:	d0 02       	bne	$2094
    2092:	e6 fe       	inc	$FE
    2094:	18          	clc	
    2095:	a5 fb       	lda	$FB
    2097:	69 02       	adc	#$02
    2099:	85 fb       	sta	$FB
    209b:	90 02       	bcc	$209F
    209d:	e6 fc       	inc	$FC
    209f:	38          	sec	
    20a0:	a5 20       	lda	$20
    20a2:	e9 01       	sbc	#$01
    20a4:	85 20       	sta	$20
    20a6:	a5 21       	lda	$21
    20a8:	e9 00       	sbc	#$00
    20aa:	85 21       	sta	$21
    20ac:	a5 20       	lda	$20
    20ae:	05 21       	ora	$21
    20b0:	d0 d1       	bne	$2083
    20b2:	ad 31 d0    	lda	$D031
    20b5:	29 57       	and	#$57
    20b7:	8d 31 d0    	sta	$D031
    20ba:	a9 01       	lda	#$01
    20bc:	0c 54 d0    	tsb	$D054
    20bf:	a9 04       	lda	#$04
    20c1:	0c 54 d0    	tsb	$D054
    20c4:	a9 02       	lda	#$02
    20c6:	1c 54 d0    	trb	$D054
    20c9:	a9 50       	lda	#$50
    20cb:	8d 58 d0    	sta	$D058
    20ce:	a9 00       	lda	#$00
    20d0:	8d 59 d0    	sta	$D059
    20d3:	a9 28       	lda	#$28
    20d5:	8d 5e d0    	sta	$D05E
    20d8:	ad 60 d0    	lda	$D060
    20db:	8d 6d 39    	sta	$396D
    20de:	ad 61 d0    	lda	$D061
    20e1:	8d 6e 39    	sta	$396E
    20e4:	ad 62 d0    	lda	$D062
    20e7:	8d 6f 39    	sta	$396F
    20ea:	a9 00       	lda	#$00
    20ec:	8d 60 d0    	sta	$D060
    20ef:	a9 c0       	lda	#$C0
    20f1:	8d 61 d0    	sta	$D061
    20f4:	a9 00       	lda	#$00
    20f6:	8d 62 d0    	sta	$D062
    20f9:	a9 00       	lda	#$00
    20fb:	8d 68 d0    	sta	$D068
    20fe:	a9 00       	lda	#$00
    2100:	8d 69 d0    	sta	$D069
    2103:	a9 04       	lda	#$04
    2105:	8d 6a d0    	sta	$D06A
    2108:	a9 00       	lda	#$00
    210a:	8d 6b d0    	sta	$D06B
    210d:	a9 00       	lda	#$00
    210f:	85 22       	sta	$22
    2111:	a9 00       	lda	#$00
    2113:	85 23       	sta	$23
    2115:	a9 f8       	lda	#$F8
    2117:	85 24       	sta	$24
    2119:	a9 0f       	lda	#$0F
    211b:	85 25       	sta	$25
    211d:	a2 08       	ldx	#$08
    211f:	a3 00       	ldz	#$00
    2121:	a9 00       	lda	#$00
    2123:	ea          	eom	
    2124:	92 22       	sta	($22),z
    2126:	1b          	inz	
    2127:	a9 ff       	lda	#$FF
    2129:	ea          	eom	
    212a:	92 22       	sta	($22),z
    212c:	1b          	inz	
    212d:	d0 f2       	bne	$2121
    212f:	e6 23       	inc	$23
    2131:	d0 06       	bne	$2139
    2133:	e6 24       	inc	$24
    2135:	d0 02       	bne	$2139
    2137:	e6 25       	inc	$25
    2139:	ca          	dex	
    213a:	d0 e3       	bne	$211F
    213c:	a9 00       	lda	#$00
    213e:	85 22       	sta	$22
    2140:	a9 00       	lda	#$00
    2142:	85 23       	sta	$23
    2144:	a9 04       	lda	#$04
    2146:	85 24       	sta	$24
    2148:	a9 00       	lda	#$00
    214a:	85 25       	sta	$25
    214c:	a2 00       	ldx	#$00
    214e:	a3 00       	ldz	#$00
    2150:	a9 00       	lda	#$00
    2152:	ea          	eom	
    2153:	92 22       	sta	($22),z
    2155:	1b          	inz	
    2156:	d0 f8       	bne	$2150
    2158:	e6 23       	inc	$23
    215a:	d0 06       	bne	$2162
    215c:	e6 24       	inc	$24
    215e:	d0 02       	bne	$2162
    2160:	e6 25       	inc	$25
    2162:	e8          	inx	
    2163:	d0 e9       	bne	$214E
    2165:	60          	rts	
    2166:	a9 00       	lda	#$00
    2168:	85 22       	sta	$22
    216a:	a9 00       	lda	#$00
    216c:	85 23       	sta	$23
    216e:	a9 f8       	lda	#$F8
    2170:	85 24       	sta	$24
    2172:	a9 0f       	lda	#$0F
    2174:	85 25       	sta	$25
    2176:	a2 08       	ldx	#$08
    2178:	a3 00       	ldz	#$00
    217a:	a9 00       	lda	#$00
    217c:	ea          	eom	
    217d:	92 22       	sta	($22),z
    217f:	1b          	inz	
    2180:	a9 00       	lda	#$00
    2182:	ea          	eom	
    2183:	92 22       	sta	($22),z
    2185:	1b          	inz	
    2186:	d0 f2       	bne	$217A
    2188:	e6 23       	inc	$23
    218a:	d0 06       	bne	$2192
    218c:	e6 24       	inc	$24
    218e:	d0 02       	bne	$2192
    2190:	e6 25       	inc	$25
    2192:	ca          	dex	
    2193:	d0 e3       	bne	$2178
    2195:	ad 6d 39    	lda	$396D
    2198:	8d 60 d0    	sta	$D060
    219b:	ad 6e 39    	lda	$396E
    219e:	8d 61 d0    	sta	$D061
    21a1:	ad 6f 39    	lda	$396F
    21a4:	8d 62 d0    	sta	$D062
    21a7:	a9 50       	lda	#$50
    21a9:	8d 58 d0    	sta	$D058
    21ac:	a9 00       	lda	#$00
    21ae:	8d 59 d0    	sta	$D059
    21b1:	a9 28       	lda	#$28
    21b3:	8d 5e d0    	sta	$D05E
    21b6:	a9 80       	lda	#$80
    21b8:	0c 31 d0    	tsb	$D031
    21bb:	a9 20       	lda	#$20
    21bd:	0c 31 d0    	tsb	$D031
    21c0:	a9 08       	lda	#$08
    21c2:	1c 31 d0    	trb	$D031
    21c5:	a9 01       	lda	#$01
    21c7:	1c 54 d0    	trb	$D054
    21ca:	a9 04       	lda	#$04
    21cc:	1c 54 d0    	trb	$D054
    21cf:	20 cc ff    	jsr	$FFCC
    21d2:	20 84 ff    	jsr	$FF84
    21d5:	20 81 ff    	jsr	$FF81
    21d8:	58          	cli	
    21d9:	60          	rts	
    21da:	a9 00       	lda	#$00
    21dc:	8d 23 3d    	sta	$3D23
    21df:	8d 2b 3d    	sta	$3D2B
    21e2:	8d 2c 3d    	sta	$3D2C
    21e5:	8d 2d 3d    	sta	$3D2D
    21e8:	8d 2e 3d    	sta	$3D2E
    21eb:	8d 31 3d    	sta	$3D31
    21ee:	8d 32 3d    	sta	$3D32
    21f1:	8d 33 3d    	sta	$3D33
    21f4:	8d 24 3d    	sta	$3D24
    21f7:	8d 25 3d    	sta	$3D25
    21fa:	a9 60       	lda	#$60
    21fc:	85 22       	sta	$22
    21fe:	a9 10       	lda	#$10
    2200:	85 23       	sta	$23
    2202:	a9 00       	lda	#$00
    2204:	8d 31 3d    	sta	$3D31
    2207:	ad 2b 3d    	lda	$3D2B
    220a:	8d 2f 3d    	sta	$3D2F
    220d:	ad 2c 3d    	lda	$3D2C
    2210:	8d 30 3d    	sta	$3D30
    2213:	20 e0 22    	jsr	$22E0
    2216:	a9 80       	lda	#$80
    2218:	8d 5c 3d    	sta	$3D5C
    221b:	a9 00       	lda	#$00
    221d:	8d 5d 3d    	sta	$3D5D
    2220:	ad 39 3d    	lda	$3D39
    2223:	8d 5e 3d    	sta	$3D5E
    2226:	ad 3a 3d    	lda	$3D3A
    2229:	8d 5f 3d    	sta	$3D5F
    222c:	a9 53       	lda	#$53
    222e:	85 24       	sta	$24
    2230:	a9 45       	lda	#$45
    2232:	85 25       	sta	$25
    2234:	a9 00       	lda	#$00
    2236:	8d 32 3d    	sta	$3D32
    2239:	ad 2d 3d    	lda	$3D2D
    223c:	8d 2f 3d    	sta	$3D2F
    223f:	ad 2e 3d    	lda	$3D2E
    2242:	8d 30 3d    	sta	$3D30
    2245:	20 e0 22    	jsr	$22E0
    2248:	a9 81       	lda	#$81
    224a:	8d 60 3d    	sta	$3D60
    224d:	a9 00       	lda	#$00
    224f:	8d 61 3d    	sta	$3D61
    2252:	ad 39 3d    	lda	$3D39
    2255:	8d 62 3d    	sta	$3D62
    2258:	ad 3a 3d    	lda	$3D3A
    225b:	8d 63 3d    	sta	$3D63
    225e:	ad 2b 3d    	lda	$3D2B
    2261:	8d 37 3d    	sta	$3D37
    2264:	ad 2c 3d    	lda	$3D2C
    2267:	8d 38 3d    	sta	$3D38
    226a:	a9 4d       	lda	#$4D
    226c:	85 26       	sta	$26
    226e:	a9 4b       	lda	#$4B
    2270:	85 27       	sta	$27
    2272:	a9 00       	lda	#$00
    2274:	8d 33 3d    	sta	$3D33
    2277:	ad 2b 3d    	lda	$3D2B
    227a:	8d 41 3d    	sta	$3D41
    227d:	ad 2c 3d    	lda	$3D2C
    2280:	8d 42 3d    	sta	$3D42
    2283:	20 05 23    	jsr	$2305
    2286:	a9 84       	lda	#$84
    2288:	8d 64 3d    	sta	$3D64
    228b:	a9 00       	lda	#$00
    228d:	8d 65 3d    	sta	$3D65
    2290:	ad 39 3d    	lda	$3D39
    2293:	8d 66 3d    	sta	$3D66
    2296:	ad 3a 3d    	lda	$3D3A
    2299:	8d 67 3d    	sta	$3D67
    229c:	a9 03       	lda	#$03
    229e:	20 2a 23    	jsr	$232A
    22a1:	20 66 23    	jsr	$2366
    22a4:	ad 23 3d    	lda	$3D23
    22a7:	d0 2a       	bne	$22D3
    22a9:	ad 26 3d    	lda	$3D26
    22ac:	c9 01       	cmp	#$01
    22ae:	f0 07       	beq	$22B7
    22b0:	c9 02       	cmp	#$02
    22b2:	f0 09       	beq	$22BD
    22b4:	4c a1 22    	jmp	$22A1
    22b7:	20 29 24    	jsr	$2429
    22ba:	4c a1 22    	jmp	$22A1
    22bd:	ad 25 3d    	lda	$3D25
    22c0:	d0 0b       	bne	$22CD
    22c2:	20 bc 27    	jsr	$27BC
    22c5:	20 bf 2a    	jsr	$2ABF
    22c8:	a9 01       	lda	#$01
    22ca:	8d 25 3d    	sta	$3D25
    22cd:	20 8b 2b    	jsr	$2B8B
    22d0:	4c a1 22    	jmp	$22A1
    22d3:	20 bc 27    	jsr	$27BC
    22d6:	20 bf 2a    	jsr	$2ABF
    22d9:	20 0a 2d    	jsr	$2D0A
    22dc:	20 e1 2d    	jsr	$2DE1
    22df:	60          	rts	
    22e0:	ad 2f 3d    	lda	$3D2F
    22e3:	ae 30 3d    	ldx	$3D30
    22e6:	8d 70 d7    	sta	$D770
    22e9:	8a          	txa	
    22ea:	8d 71 d7    	sta	$D771
    22ed:	a9 06       	lda	#$06
    22ef:	8d 74 d7    	sta	$D774
    22f2:	a9 00       	lda	#$00
    22f4:	8d 75 d7    	sta	$D775
    22f7:	ad 79 d7    	lda	$D779
    22fa:	aa          	tax	
    22fb:	ad 78 d7    	lda	$D778
    22fe:	8d 39 3d    	sta	$3D39
    2301:	8e 3a 3d    	stx	$3D3A
    2304:	60          	rts	
    2305:	ad 41 3d    	lda	$3D41
    2308:	ae 42 3d    	ldx	$3D42
    230b:	8d 70 d7    	sta	$D770
    230e:	8a          	txa	
    230f:	8d 71 d7    	sta	$D771
    2312:	a9 03       	lda	#$03
    2314:	8d 74 d7    	sta	$D774
    2317:	a9 00       	lda	#$00
    2319:	8d 75 d7    	sta	$D775
    231c:	ad 79 d7    	lda	$D779
    231f:	aa          	tax	
    2320:	ad 78 d7    	lda	$D778
    2323:	8d 39 3d    	sta	$3D39
    2326:	8e 3a 3d    	stx	$3D3A
    2329:	60          	rts	
    232a:	78          	sei	
    232b:	a9 03       	lda	#$03
    232d:	a2 ea       	ldx	#$EA
    232f:	a0 2d       	ldy	#$2D
    2331:	20 bd ff    	jsr	$FFBD
    2334:	a9 01       	lda	#$01
    2336:	a2 08       	ldx	#$08
    2338:	a0 02       	ldy	#$02
    233a:	20 ba ff    	jsr	$FFBA
    233d:	a9 00       	lda	#$00
    233f:	a2 00       	ldx	#$00
    2341:	20 6b ff    	jsr	$FF6B
    2344:	20 c0 ff    	jsr	$FFC0
    2347:	b0 13       	bcs	$235C
    2349:	a2 01       	ldx	#$01
    234b:	20 c6 ff    	jsr	$FFC6
    234e:	b0 07       	bcs	$2357
    2350:	a9 00       	lda	#$00
    2352:	8d 23 3d    	sta	$3D23
    2355:	58          	cli	
    2356:	60          	rts	
    2357:	a9 01       	lda	#$01
    2359:	20 c3 ff    	jsr	$FFC3
    235c:	a9 ff       	lda	#$FF
    235e:	8d 23 3d    	sta	$3D23
    2361:	20 cc ff    	jsr	$FFCC
    2364:	58          	cli	
    2365:	60          	rts	
    2366:	20 03 24    	jsr	$2403
    2369:	ad 23 3d    	lda	$3D23
    236c:	f0 03       	beq	$2371
    236e:	4c fd 23    	jmp	$23FD
    2371:	ad 27 3d    	lda	$3D27
    2374:	29 7f       	and	#$7F
    2376:	8d 27 3d    	sta	$3D27
    2379:	c9 0d       	cmp	#$0D
    237b:	f0 e9       	beq	$2366
    237d:	c9 0a       	cmp	#$0A
    237f:	f0 e5       	beq	$2366
    2381:	c9 20       	cmp	#$20
    2383:	f0 e1       	beq	$2366
    2385:	c9 09       	cmp	#$09
    2387:	f0 dd       	beq	$2366
    2389:	c9 23       	cmp	#$23
    238b:	f0 67       	beq	$23F4
    238d:	c9 76       	cmp	#$76
    238f:	f0 15       	beq	$23A6
    2391:	c9 56       	cmp	#$56
    2393:	f0 11       	beq	$23A6
    2395:	c9 66       	cmp	#$66
    2397:	f0 34       	beq	$23CD
    2399:	c9 46       	cmp	#$46
    239b:	f0 30       	beq	$23CD
    239d:	20 12 24    	jsr	$2412
    23a0:	a9 00       	lda	#$00
    23a2:	8d 26 3d    	sta	$3D26
    23a5:	60          	rts	
    23a6:	20 03 24    	jsr	$2403
    23a9:	ad 23 3d    	lda	$3D23
    23ac:	d0 4f       	bne	$23FD
    23ae:	ad 27 3d    	lda	$3D27
    23b1:	29 7f       	and	#$7F
    23b3:	8d 27 3d    	sta	$3D27
    23b6:	c9 20       	cmp	#$20
    23b8:	f0 0d       	beq	$23C7
    23ba:	c9 09       	cmp	#$09
    23bc:	f0 09       	beq	$23C7
    23be:	20 12 24    	jsr	$2412
    23c1:	a9 00       	lda	#$00
    23c3:	8d 26 3d    	sta	$3D26
    23c6:	60          	rts	
    23c7:	a9 01       	lda	#$01
    23c9:	8d 26 3d    	sta	$3D26
    23cc:	60          	rts	
    23cd:	20 03 24    	jsr	$2403
    23d0:	ad 23 3d    	lda	$3D23
    23d3:	d0 28       	bne	$23FD
    23d5:	ad 27 3d    	lda	$3D27
    23d8:	29 7f       	and	#$7F
    23da:	8d 27 3d    	sta	$3D27
    23dd:	c9 20       	cmp	#$20
    23df:	f0 0d       	beq	$23EE
    23e1:	c9 09       	cmp	#$09
    23e3:	f0 09       	beq	$23EE
    23e5:	20 12 24    	jsr	$2412
    23e8:	a9 00       	lda	#$00
    23ea:	8d 26 3d    	sta	$3D26
    23ed:	60          	rts	
    23ee:	a9 02       	lda	#$02
    23f0:	8d 26 3d    	sta	$3D26
    23f3:	60          	rts	
    23f4:	20 12 24    	jsr	$2412
    23f7:	a9 00       	lda	#$00
    23f9:	8d 26 3d    	sta	$3D26
    23fc:	60          	rts	
    23fd:	a9 00       	lda	#$00
    23ff:	8d 26 3d    	sta	$3D26
    2402:	60          	rts	
    2403:	20 cf ff    	jsr	$FFCF
    2406:	8d 27 3d    	sta	$3D27
    2409:	20 b7 ff    	jsr	$FFB7
    240c:	29 c3       	and	#$C3
    240e:	8d 23 3d    	sta	$3D23
    2411:	60          	rts	
    2412:	20 03 24    	jsr	$2403
    2415:	ad 23 3d    	lda	$3D23
    2418:	d0 0e       	bne	$2428
    241a:	ad 27 3d    	lda	$3D27
    241d:	c9 0d       	cmp	#$0D
    241f:	f0 07       	beq	$2428
    2421:	c9 0a       	cmp	#$0A
    2423:	f0 03       	beq	$2428
    2425:	4c 12 24    	jmp	$2412
    2428:	60          	rts	
    2429:	20 a0 24    	jsr	$24A0
    242c:	ad 4e 3d    	lda	$3D4E
    242f:	8d 50 3d    	sta	$3D50
    2432:	ad 4f 3d    	lda	$3D4F
    2435:	20 a0 24    	jsr	$24A0
    2438:	ad 4e 3d    	lda	$3D4E
    243b:	8d 52 3d    	sta	$3D52
    243e:	ad 4f 3d    	lda	$3D4F
    2441:	8d 53 3d    	sta	$3D53
    2444:	20 a0 24    	jsr	$24A0
    2447:	ad 4e 3d    	lda	$3D4E
    244a:	8d 54 3d    	sta	$3D54
    244d:	ad 4f 3d    	lda	$3D4F
    2450:	8d 55 3d    	sta	$3D55
    2453:	20 7e 27    	jsr	$277E
    2456:	a9 ff       	lda	#$FF
    2458:	8d 56 3d    	sta	$3D56
    245b:	8d 57 3d    	sta	$3D57
    245e:	8d 58 3d    	sta	$3D58
    2461:	20 82 28    	jsr	$2882
    2464:	ad 2a 3d    	lda	$3D2A
    2467:	f0 2b       	beq	$2494
    2469:	20 06 27    	jsr	$2706
    246c:	20 39 2a    	jsr	$2A39
    246f:	8d 56 3d    	sta	$3D56
    2472:	20 82 28    	jsr	$2882
    2475:	ad 2a 3d    	lda	$3D2A
    2478:	f0 1a       	beq	$2494
    247a:	20 06 27    	jsr	$2706
    247d:	20 39 2a    	jsr	$2A39
    2480:	8d 57 3d    	sta	$3D57
    2483:	20 82 28    	jsr	$2882
    2486:	ad 2a 3d    	lda	$3D2A
    2489:	f0 09       	beq	$2494
    248b:	20 06 27    	jsr	$2706
    248e:	20 39 2a    	jsr	$2A39
    2491:	8d 58 3d    	sta	$3D58
    2494:	20 93 2a    	jsr	$2A93
    2497:	ee 2b 3d    	inc	$3D2B
    249a:	d0 03       	bne	$249F
    249c:	ee 2c 3d    	inc	$3D2C
    249f:	60          	rts	
    24a0:	a9 00       	lda	#$00
    24a2:	8d 4e 3d    	sta	$3D4E
    24a5:	8d 4f 3d    	sta	$3D4F
    24a8:	8d 47 3d    	sta	$3D47
    24ab:	8d 48 3d    	sta	$3D48
    24ae:	8d 49 3d    	sta	$3D49
    24b1:	8d 4a 3d    	sta	$3D4A
    24b4:	8d 4b 3d    	sta	$3D4B
    24b7:	8d 4c 3d    	sta	$3D4C
    24ba:	20 2a 26    	jsr	$262A
    24bd:	aa          	tax	
    24be:	ad 23 3d    	lda	$3D23
    24c1:	f0 03       	beq	$24C6
    24c3:	4c 29 26    	jmp	$2629
    24c6:	8a          	txa	
    24c7:	c9 2d       	cmp	#$2D
    24c9:	d0 13       	bne	$24DE
    24cb:	a9 01       	lda	#$01
    24cd:	8d 4c 3d    	sta	$3D4C
    24d0:	20 03 24    	jsr	$2403
    24d3:	ad 23 3d    	lda	$3D23
    24d6:	f0 03       	beq	$24DB
    24d8:	4c 8c 25    	jmp	$258C
    24db:	ad 27 3d    	lda	$3D27
    24de:	20 93 26    	jsr	$2693
    24e1:	d0 25       	bne	$2508
    24e3:	48          	pha	
    24e4:	20 bc 26    	jsr	$26BC
    24e7:	68          	pla	
    24e8:	38          	sec	
    24e9:	e9 30       	sbc	#$30
    24eb:	18          	clc	
    24ec:	6d 47 3d    	adc	$3D47
    24ef:	8d 47 3d    	sta	$3D47
    24f2:	90 03       	bcc	$24F7
    24f4:	ee 48 3d    	inc	$3D48
    24f7:	20 03 24    	jsr	$2403
    24fa:	ad 23 3d    	lda	$3D23
    24fd:	f0 03       	beq	$2502
    24ff:	4c 8c 25    	jmp	$258C
    2502:	ad 27 3d    	lda	$3D27
    2505:	4c de 24    	jmp	$24DE
    2508:	c9 2e       	cmp	#$2E
    250a:	d0 42       	bne	$254E
    250c:	20 03 24    	jsr	$2403
    250f:	ad 23 3d    	lda	$3D23
    2512:	f0 03       	beq	$2517
    2514:	4c 8c 25    	jmp	$258C
    2517:	ad 27 3d    	lda	$3D27
    251a:	20 93 26    	jsr	$2693
    251d:	d0 2f       	bne	$254E
    251f:	ad 4b 3d    	lda	$3D4B
    2522:	c9 03       	cmp	#$03
    2524:	b0 1a       	bcs	$2540
    2526:	ad 27 3d    	lda	$3D27
    2529:	48          	pha	
    252a:	20 e1 26    	jsr	$26E1
    252d:	68          	pla	
    252e:	38          	sec	
    252f:	e9 30       	sbc	#$30
    2531:	18          	clc	
    2532:	6d 49 3d    	adc	$3D49
    2535:	8d 49 3d    	sta	$3D49
    2538:	90 03       	bcc	$253D
    253a:	ee 4a 3d    	inc	$3D4A
    253d:	ee 4b 3d    	inc	$3D4B
    2540:	20 03 24    	jsr	$2403
    2543:	ad 23 3d    	lda	$3D23
    2546:	d0 44       	bne	$258C
    2548:	ad 27 3d    	lda	$3D27
    254b:	4c 1a 25    	jmp	$251A
    254e:	c9 65       	cmp	#$65
    2550:	f0 04       	beq	$2556
    2552:	c9 45       	cmp	#$45
    2554:	d0 36       	bne	$258C
    2556:	20 03 24    	jsr	$2403
    2559:	ad 23 3d    	lda	$3D23
    255c:	d0 2e       	bne	$258C
    255e:	ad 27 3d    	lda	$3D27
    2561:	c9 2d       	cmp	#$2D
    2563:	d0 14       	bne	$2579
    2565:	a9 00       	lda	#$00
    2567:	8d 47 3d    	sta	$3D47
    256a:	8d 48 3d    	sta	$3D48
    256d:	8d 49 3d    	sta	$3D49
    2570:	8d 4a 3d    	sta	$3D4A
    2573:	8d 4b 3d    	sta	$3D4B
    2576:	4c 79 25    	jmp	$2579
    2579:	20 03 24    	jsr	$2403
    257c:	ad 23 3d    	lda	$3D23
    257f:	d0 0b       	bne	$258C
    2581:	ad 27 3d    	lda	$3D27
    2584:	20 d0 2d    	jsr	$2DD0
    2587:	f0 03       	beq	$258C
    2589:	4c 79 25    	jmp	$2579
    258c:	ad 4c 3d    	lda	$3D4C
    258f:	d0 33       	bne	$25C4
    2591:	ad 48 3d    	lda	$3D48
    2594:	d0 07       	bne	$259D
    2596:	ad 47 3d    	lda	$3D47
    2599:	c9 80       	cmp	#$80
    259b:	90 0d       	bcc	$25AA
    259d:	a9 ff       	lda	#$FF
    259f:	8d 4e 3d    	sta	$3D4E
    25a2:	a9 7f       	lda	#$7F
    25a4:	8d 4f 3d    	sta	$3D4F
    25a7:	4c 29 26    	jmp	$2629
    25aa:	ad 47 3d    	lda	$3D47
    25ad:	8d 4f 3d    	sta	$3D4F
    25b0:	ad 4b 3d    	lda	$3D4B
    25b3:	f0 74       	beq	$2629
    25b5:	20 06 27    	jsr	$2706
    25b8:	20 55 27    	jsr	$2755
    25bb:	ad 4d 3d    	lda	$3D4D
    25be:	8d 4e 3d    	sta	$3D4E
    25c1:	4c 29 26    	jmp	$2629
    25c4:	ad 48 3d    	lda	$3D48
    25c7:	d0 56       	bne	$261F
    25c9:	ad 47 3d    	lda	$3D47
    25cc:	c9 80       	cmp	#$80
    25ce:	90 0f       	bcc	$25DF
    25d0:	d0 4d       	bne	$261F
    25d2:	ad 4b 3d    	lda	$3D4B
    25d5:	f0 08       	beq	$25DF
    25d7:	ad 49 3d    	lda	$3D49
    25da:	0d 4a 3d    	ora	$3D4A
    25dd:	d0 40       	bne	$261F
    25df:	ad 47 3d    	lda	$3D47
    25e2:	8d 3e 3d    	sta	$3D3E
    25e5:	a9 00       	lda	#$00
    25e7:	8d 3d 3d    	sta	$3D3D
    25ea:	ad 4b 3d    	lda	$3D4B
    25ed:	f0 0c       	beq	$25FB
    25ef:	20 06 27    	jsr	$2706
    25f2:	20 55 27    	jsr	$2755
    25f5:	ad 4d 3d    	lda	$3D4D
    25f8:	8d 3d 3d    	sta	$3D3D
    25fb:	ad 3d 3d    	lda	$3D3D
    25fe:	49 ff       	eor	#$FF
    2600:	8d 4e 3d    	sta	$3D4E
    2603:	ad 3e 3d    	lda	$3D3E
    2606:	49 ff       	eor	#$FF
    2608:	8d 4f 3d    	sta	$3D4F
    260b:	18          	clc	
    260c:	ad 4e 3d    	lda	$3D4E
    260f:	69 01       	adc	#$01
    2611:	8d 4e 3d    	sta	$3D4E
    2614:	ad 4f 3d    	lda	$3D4F
    2617:	69 00       	adc	#$00
    2619:	8d 4f 3d    	sta	$3D4F
    261c:	4c 29 26    	jmp	$2629
    261f:	a9 00       	lda	#$00
    2621:	8d 4e 3d    	sta	$3D4E
    2624:	a9 80       	lda	#$80
    2626:	8d 4f 3d    	sta	$3D4F
    2629:	60          	rts	
    262a:	ad 24 3d    	lda	$3D24
    262d:	d0 1d       	bne	$264C
    262f:	20 03 24    	jsr	$2403
    2632:	ad 23 3d    	lda	$3D23
    2635:	29 c3       	and	#$C3
    2637:	d0 2c       	bne	$2665
    2639:	ad 27 3d    	lda	$3D27
    263c:	20 66 26    	jsr	$2666
    263f:	f0 03       	beq	$2644
    2641:	4c 2f 26    	jmp	$262F
    2644:	aa          	tax	
    2645:	a9 01       	lda	#$01
    2647:	8d 24 3d    	sta	$3D24
    264a:	8a          	txa	
    264b:	60          	rts	
    264c:	20 03 24    	jsr	$2403
    264f:	ad 23 3d    	lda	$3D23
    2652:	29 c3       	and	#$C3
    2654:	d0 0f       	bne	$2665
    2656:	ad 27 3d    	lda	$3D27
    2659:	c9 2d       	cmp	#$2D
    265b:	f0 05       	beq	$2662
    265d:	20 93 26    	jsr	$2693
    2660:	d0 ea       	bne	$264C
    2662:	ad 27 3d    	lda	$3D27
    2665:	60          	rts	
    2666:	c9 2d       	cmp	#$2D
    2668:	f0 28       	beq	$2692
    266a:	c9 30       	cmp	#$30
    266c:	f0 24       	beq	$2692
    266e:	c9 31       	cmp	#$31
    2670:	f0 20       	beq	$2692
    2672:	c9 32       	cmp	#$32
    2674:	f0 1c       	beq	$2692
    2676:	c9 33       	cmp	#$33
    2678:	f0 18       	beq	$2692
    267a:	c9 34       	cmp	#$34
    267c:	f0 14       	beq	$2692
    267e:	c9 35       	cmp	#$35
    2680:	f0 10       	beq	$2692
    2682:	c9 36       	cmp	#$36
    2684:	f0 0c       	beq	$2692
    2686:	c9 37       	cmp	#$37
    2688:	f0 08       	beq	$2692
    268a:	c9 38       	cmp	#$38
    268c:	f0 04       	beq	$2692
    268e:	c9 39       	cmp	#$39
    2690:	f0 00       	beq	$2692
    2692:	60          	rts	
    2693:	c9 30       	cmp	#$30
    2695:	f0 24       	beq	$26BB
    2697:	c9 31       	cmp	#$31
    2699:	f0 20       	beq	$26BB
    269b:	c9 32       	cmp	#$32
    269d:	f0 1c       	beq	$26BB
    269f:	c9 33       	cmp	#$33
    26a1:	f0 18       	beq	$26BB
    26a3:	c9 34       	cmp	#$34
    26a5:	f0 14       	beq	$26BB
    26a7:	c9 35       	cmp	#$35
    26a9:	f0 10       	beq	$26BB
    26ab:	c9 36       	cmp	#$36
    26ad:	f0 0c       	beq	$26BB
    26af:	c9 37       	cmp	#$37
    26b1:	f0 08       	beq	$26BB
    26b3:	c9 38       	cmp	#$38
    26b5:	f0 04       	beq	$26BB
    26b7:	c9 39       	cmp	#$39
    26b9:	f0 00       	beq	$26BB
    26bb:	60          	rts	
    26bc:	ad 47 3d    	lda	$3D47
    26bf:	ae 48 3d    	ldx	$3D48
    26c2:	8d 70 d7    	sta	$D770
    26c5:	8a          	txa	
    26c6:	8d 71 d7    	sta	$D771
    26c9:	a9 0a       	lda	#$0A
    26cb:	8d 74 d7    	sta	$D774
    26ce:	a9 00       	lda	#$00
    26d0:	8d 75 d7    	sta	$D775
    26d3:	ad 79 d7    	lda	$D779
    26d6:	aa          	tax	
    26d7:	ad 78 d7    	lda	$D778
    26da:	8d 47 3d    	sta	$3D47
    26dd:	8e 48 3d    	stx	$3D48
    26e0:	60          	rts	
    26e1:	ad 49 3d    	lda	$3D49
    26e4:	ae 4a 3d    	ldx	$3D4A
    26e7:	8d 70 d7    	sta	$D770
    26ea:	8a          	txa	
    26eb:	8d 71 d7    	sta	$D771
    26ee:	a9 0a       	lda	#$0A
    26f0:	8d 74 d7    	sta	$D774
    26f3:	a9 00       	lda	#$00
    26f5:	8d 75 d7    	sta	$D775
    26f8:	ad 79 d7    	lda	$D779
    26fb:	aa          	tax	
    26fc:	ad 78 d7    	lda	$D778
    26ff:	8d 49 3d    	sta	$3D49
    2702:	8e 4a 3d    	stx	$3D4A
    2705:	60          	rts	
    2706:	ad 4b 3d    	lda	$3D4B
    2709:	c9 03       	cmp	#$03
    270b:	f0 47       	beq	$2754
    270d:	ad 49 3d    	lda	$3D49
    2710:	ae 4a 3d    	ldx	$3D4A
    2713:	c9 02       	cmp	#$02
    2715:	f0 1f       	beq	$2736
    2717:	8d 70 d7    	sta	$D770
    271a:	8a          	txa	
    271b:	8d 71 d7    	sta	$D771
    271e:	a9 64       	lda	#$64
    2720:	8d 74 d7    	sta	$D774
    2723:	a9 00       	lda	#$00
    2725:	8d 75 d7    	sta	$D775
    2728:	ad 79 d7    	lda	$D779
    272b:	aa          	tax	
    272c:	ad 78 d7    	lda	$D778
    272f:	8d 49 3d    	sta	$3D49
    2732:	8e 4a 3d    	stx	$3D4A
    2735:	60          	rts	
    2736:	8d 70 d7    	sta	$D770
    2739:	8a          	txa	
    273a:	8d 71 d7    	sta	$D771
    273d:	a9 0a       	lda	#$0A
    273f:	8d 74 d7    	sta	$D774
    2742:	a9 00       	lda	#$00
    2744:	8d 75 d7    	sta	$D775
    2747:	ad 79 d7    	lda	$D779
    274a:	aa          	tax	
    274b:	ad 78 d7    	lda	$D778
    274e:	8d 49 3d    	sta	$3D49
    2751:	8e 4a 3d    	stx	$3D4A
    2754:	60          	rts	
    2755:	a9 33       	lda	#$33
    2757:	85 20       	sta	$20
    2759:	a9 0c       	lda	#$0C
    275b:	85 21       	sta	$21
    275d:	a5 20       	lda	$20
    275f:	8d 35 3d    	sta	$3D35
    2762:	a5 21       	lda	$21
    2764:	8d 36 3d    	sta	$3D36
    2767:	18          	clc	
    2768:	a5 20       	lda	$20
    276a:	6d 49 3d    	adc	$3D49
    276d:	85 20       	sta	$20
    276f:	a5 21       	lda	$21
    2771:	6d 4a 3d    	adc	$3D4A
    2774:	85 21       	sta	$21
    2776:	a0 00       	ldy	#$00
    2778:	b1 20       	lda	($20),y
    277a:	8d 4d 3d    	sta	$3D4D
    277d:	60          	rts	
    277e:	a0 00       	ldy	#$00
    2780:	ad 50 3d    	lda	$3D50
    2783:	91 22       	sta	($22),y
    2785:	c8          	iny	
    2786:	ad 51 3d    	lda	$3D51
    2789:	91 22       	sta	($22),y
    278b:	c8          	iny	
    278c:	ad 52 3d    	lda	$3D52
    278f:	91 22       	sta	($22),y
    2791:	c8          	iny	
    2792:	ad 53 3d    	lda	$3D53
    2795:	91 22       	sta	($22),y
    2797:	c8          	iny	
    2798:	ad 54 3d    	lda	$3D54
    279b:	91 22       	sta	($22),y
    279d:	c8          	iny	
    279e:	ad 55 3d    	lda	$3D55
    27a1:	91 22       	sta	($22),y
    27a3:	18          	clc	
    27a4:	a5 22       	lda	$22
    27a6:	69 06       	adc	#$06
    27a8:	85 22       	sta	$22
    27aa:	90 02       	bcc	$27AE
    27ac:	e6 23       	inc	$23
    27ae:	ee 31 3d    	inc	$3D31
    27b1:	ad 31 3d    	lda	$3D31
    27b4:	c9 ff       	cmp	#$FF
    27b6:	d0 03       	bne	$27BB
    27b8:	20 bc 27    	jsr	$27BC
    27bb:	60          	rts	
    27bc:	ad 31 3d    	lda	$3D31
    27bf:	f0 78       	beq	$2839
    27c1:	ad 31 3d    	lda	$3D31
    27c4:	8d 39 3d    	sta	$3D39
    27c7:	a9 00       	lda	#$00
    27c9:	8d 3a 3d    	sta	$3D3A
    27cc:	0e 39 3d    	asl	$3D39
    27cf:	2e 3a 3d    	rol	$3D3A
    27d2:	ad 39 3d    	lda	$3D39
    27d5:	8d 3b 3d    	sta	$3D3B
    27d8:	ad 3a 3d    	lda	$3D3A
    27db:	8d 3c 3d    	sta	$3D3C
    27de:	0e 39 3d    	asl	$3D39
    27e1:	2e 3a 3d    	rol	$3D3A
    27e4:	18          	clc	
    27e5:	ad 39 3d    	lda	$3D39
    27e8:	6d 3b 3d    	adc	$3D3B
    27eb:	8d 39 3d    	sta	$3D39
    27ee:	ad 3a 3d    	lda	$3D3A
    27f1:	6d 3c 3d    	adc	$3D3C
    27f4:	8d 3a 3d    	sta	$3D3A
    27f7:	a9 3f       	lda	#$3F
    27f9:	85 20       	sta	$20
    27fb:	a9 28       	lda	#$28
    27fd:	85 21       	sta	$21
    27ff:	a0 04       	ldy	#$04
    2801:	ad 39 3d    	lda	$3D39
    2804:	91 20       	sta	($20),y
    2806:	c8          	iny	
    2807:	ad 3a 3d    	lda	$3D3A
    280a:	91 20       	sta	($20),y
    280c:	a0 09       	ldy	#$09
    280e:	ad 5e 3d    	lda	$3D5E
    2811:	91 20       	sta	($20),y
    2813:	c8          	iny	
    2814:	ad 5f 3d    	lda	$3D5F
    2817:	91 20       	sta	($20),y
    2819:	c8          	iny	
    281a:	ad 5d 3d    	lda	$3D5D
    281d:	91 20       	sta	($20),y
    281f:	a0 01       	ldy	#$01
    2821:	ad 5c 3d    	lda	$3D5C
    2824:	91 20       	sta	($20),y
    2826:	a0 06       	ldy	#$06
    2828:	a9 60       	lda	#$60
    282a:	91 20       	sta	($20),y
    282c:	c8          	iny	
    282d:	a9 10       	lda	#$10
    282f:	91 20       	sta	($20),y
    2831:	c8          	iny	
    2832:	a9 00       	lda	#$00
    2834:	91 20       	sta	($20),y
    2836:	4c 3a 28    	jmp	$283A
    2839:	60          	rts	
    283a:	a9 00       	lda	#$00
    283c:	8d 07 d7    	sta	$D707
    283f:	81 00       	sta	($00,x)
    2841:	00          	brk	
    2842:	00          	brk	
    2843:	00          	brk	
    2844:	00          	brk	
    2845:	00          	brk	
    2846:	00          	brk	
    2847:	00          	brk	
    2848:	00          	brk	
    2849:	00          	brk	
    284a:	00          	brk	
    284b:	00          	brk	
    284c:	00          	brk	
    284d:	18          	clc	
    284e:	ad 5e 3d    	lda	$3D5E
    2851:	6d 39 3d    	adc	$3D39
    2854:	8d 5e 3d    	sta	$3D5E
    2857:	ad 5f 3d    	lda	$3D5F
    285a:	6d 3a 3d    	adc	$3D3A
    285d:	8d 5f 3d    	sta	$3D5F
    2860:	ad 5d 3d    	lda	$3D5D
    2863:	69 00       	adc	#$00
    2865:	8d 5d 3d    	sta	$3D5D
    2868:	c9 10       	cmp	#$10
    286a:	d0 08       	bne	$2874
    286c:	a9 00       	lda	#$00
    286e:	8d 5d 3d    	sta	$3D5D
    2871:	ee 5c 3d    	inc	$3D5C
    2874:	a9 60       	lda	#$60
    2876:	85 22       	sta	$22
    2878:	a9 10       	lda	#$10
    287a:	85 23       	sta	$23
    287c:	a9 00       	lda	#$00
    287e:	8d 31 3d    	sta	$3D31
    2881:	60          	rts	
    2882:	a9 00       	lda	#$00
    2884:	8d 2a 3d    	sta	$3D2A
    2887:	20 03 24    	jsr	$2403
    288a:	ad 23 3d    	lda	$3D23
    288d:	d0 29       	bne	$28B8
    288f:	ad 27 3d    	lda	$3D27
    2892:	c9 20       	cmp	#$20
    2894:	f0 f1       	beq	$2887
    2896:	c9 09       	cmp	#$09
    2898:	f0 ed       	beq	$2887
    289a:	c9 0d       	cmp	#$0D
    289c:	f0 1a       	beq	$28B8
    289e:	c9 0a       	cmp	#$0A
    28a0:	f0 16       	beq	$28B8
    28a2:	ad 27 3d    	lda	$3D27
    28a5:	20 66 26    	jsr	$2666
    28a8:	d0 0e       	bne	$28B8
    28aa:	a9 01       	lda	#$01
    28ac:	8d 24 3d    	sta	$3D24
    28af:	a9 01       	lda	#$01
    28b1:	8d 2a 3d    	sta	$3D2A
    28b4:	20 b9 28    	jsr	$28B9
    28b7:	60          	rts	
    28b8:	60          	rts	
    28b9:	a9 00       	lda	#$00
    28bb:	8d 4e 3d    	sta	$3D4E
    28be:	8d 4f 3d    	sta	$3D4F
    28c1:	8d 47 3d    	sta	$3D47
    28c4:	8d 48 3d    	sta	$3D48
    28c7:	8d 49 3d    	sta	$3D49
    28ca:	8d 4a 3d    	sta	$3D4A
    28cd:	8d 4b 3d    	sta	$3D4B
    28d0:	8d 4c 3d    	sta	$3D4C
    28d3:	ad 27 3d    	lda	$3D27
    28d6:	c9 2d       	cmp	#$2D
    28d8:	d0 13       	bne	$28ED
    28da:	a9 01       	lda	#$01
    28dc:	8d 4c 3d    	sta	$3D4C
    28df:	20 03 24    	jsr	$2403
    28e2:	ad 23 3d    	lda	$3D23
    28e5:	f0 03       	beq	$28EA
    28e7:	4c 9b 29    	jmp	$299B
    28ea:	ad 27 3d    	lda	$3D27
    28ed:	20 93 26    	jsr	$2693
    28f0:	d0 25       	bne	$2917
    28f2:	48          	pha	
    28f3:	20 bc 26    	jsr	$26BC
    28f6:	68          	pla	
    28f7:	38          	sec	
    28f8:	e9 30       	sbc	#$30
    28fa:	18          	clc	
    28fb:	6d 47 3d    	adc	$3D47
    28fe:	8d 47 3d    	sta	$3D47
    2901:	90 03       	bcc	$2906
    2903:	ee 48 3d    	inc	$3D48
    2906:	20 03 24    	jsr	$2403
    2909:	ad 23 3d    	lda	$3D23
    290c:	f0 03       	beq	$2911
    290e:	4c 9b 29    	jmp	$299B
    2911:	ad 27 3d    	lda	$3D27
    2914:	4c ed 28    	jmp	$28ED
    2917:	c9 2e       	cmp	#$2E
    2919:	d0 42       	bne	$295D
    291b:	20 03 24    	jsr	$2403
    291e:	ad 23 3d    	lda	$3D23
    2921:	f0 03       	beq	$2926
    2923:	4c 9b 29    	jmp	$299B
    2926:	ad 27 3d    	lda	$3D27
    2929:	20 93 26    	jsr	$2693
    292c:	d0 2f       	bne	$295D
    292e:	ad 4b 3d    	lda	$3D4B
    2931:	c9 03       	cmp	#$03
    2933:	b0 1a       	bcs	$294F
    2935:	ad 27 3d    	lda	$3D27
    2938:	48          	pha	
    2939:	20 e1 26    	jsr	$26E1
    293c:	68          	pla	
    293d:	38          	sec	
    293e:	e9 30       	sbc	#$30
    2940:	18          	clc	
    2941:	6d 49 3d    	adc	$3D49
    2944:	8d 49 3d    	sta	$3D49
    2947:	90 03       	bcc	$294C
    2949:	ee 4a 3d    	inc	$3D4A
    294c:	ee 4b 3d    	inc	$3D4B
    294f:	20 03 24    	jsr	$2403
    2952:	ad 23 3d    	lda	$3D23
    2955:	d0 44       	bne	$299B
    2957:	ad 27 3d    	lda	$3D27
    295a:	4c 29 29    	jmp	$2929
    295d:	c9 65       	cmp	#$65
    295f:	f0 04       	beq	$2965
    2961:	c9 45       	cmp	#$45
    2963:	d0 36       	bne	$299B
    2965:	20 03 24    	jsr	$2403
    2968:	ad 23 3d    	lda	$3D23
    296b:	d0 2e       	bne	$299B
    296d:	ad 27 3d    	lda	$3D27
    2970:	c9 2d       	cmp	#$2D
    2972:	d0 14       	bne	$2988
    2974:	a9 00       	lda	#$00
    2976:	8d 47 3d    	sta	$3D47
    2979:	8d 48 3d    	sta	$3D48
    297c:	8d 49 3d    	sta	$3D49
    297f:	8d 4a 3d    	sta	$3D4A
    2982:	8d 4b 3d    	sta	$3D4B
    2985:	4c 88 29    	jmp	$2988
    2988:	20 03 24    	jsr	$2403
    298b:	ad 23 3d    	lda	$3D23
    298e:	d0 0b       	bne	$299B
    2990:	ad 27 3d    	lda	$3D27
    2993:	20 d0 2d    	jsr	$2DD0
    2996:	f0 03       	beq	$299B
    2998:	4c 88 29    	jmp	$2988
    299b:	ad 4c 3d    	lda	$3D4C
    299e:	d0 33       	bne	$29D3
    29a0:	ad 48 3d    	lda	$3D48
    29a3:	d0 07       	bne	$29AC
    29a5:	ad 47 3d    	lda	$3D47
    29a8:	c9 80       	cmp	#$80
    29aa:	90 0d       	bcc	$29B9
    29ac:	a9 ff       	lda	#$FF
    29ae:	8d 4e 3d    	sta	$3D4E
    29b1:	a9 7f       	lda	#$7F
    29b3:	8d 4f 3d    	sta	$3D4F
    29b6:	4c 38 2a    	jmp	$2A38
    29b9:	ad 47 3d    	lda	$3D47
    29bc:	8d 4f 3d    	sta	$3D4F
    29bf:	ad 4b 3d    	lda	$3D4B
    29c2:	f0 74       	beq	$2A38
    29c4:	20 06 27    	jsr	$2706
    29c7:	20 55 27    	jsr	$2755
    29ca:	ad 4d 3d    	lda	$3D4D
    29cd:	8d 4e 3d    	sta	$3D4E
    29d0:	4c 38 2a    	jmp	$2A38
    29d3:	ad 48 3d    	lda	$3D48
    29d6:	d0 56       	bne	$2A2E
    29d8:	ad 47 3d    	lda	$3D47
    29db:	c9 80       	cmp	#$80
    29dd:	90 0f       	bcc	$29EE
    29df:	d0 4d       	bne	$2A2E
    29e1:	ad 4b 3d    	lda	$3D4B
    29e4:	f0 08       	beq	$29EE
    29e6:	ad 49 3d    	lda	$3D49
    29e9:	0d 4a 3d    	ora	$3D4A
    29ec:	d0 40       	bne	$2A2E
    29ee:	ad 47 3d    	lda	$3D47
    29f1:	8d 3e 3d    	sta	$3D3E
    29f4:	a9 00       	lda	#$00
    29f6:	8d 3d 3d    	sta	$3D3D
    29f9:	ad 4b 3d    	lda	$3D4B
    29fc:	f0 0c       	beq	$2A0A
    29fe:	20 06 27    	jsr	$2706
    2a01:	20 55 27    	jsr	$2755
    2a04:	ad 4d 3d    	lda	$3D4D
    2a07:	8d 3d 3d    	sta	$3D3D
    2a0a:	ad 3d 3d    	lda	$3D3D
    2a0d:	49 ff       	eor	#$FF
    2a0f:	8d 4e 3d    	sta	$3D4E
    2a12:	ad 3e 3d    	lda	$3D3E
    2a15:	49 ff       	eor	#$FF
    2a17:	8d 4f 3d    	sta	$3D4F
    2a1a:	18          	clc	
    2a1b:	ad 4e 3d    	lda	$3D4E
    2a1e:	69 01       	adc	#$01
    2a20:	8d 4e 3d    	sta	$3D4E
    2a23:	ad 4f 3d    	lda	$3D4F
    2a26:	69 00       	adc	#$00
    2a28:	8d 4f 3d    	sta	$3D4F
    2a2b:	4c 38 2a    	jmp	$2A38
    2a2e:	a9 00       	lda	#$00
    2a30:	8d 4e 3d    	sta	$3D4E
    2a33:	a9 80       	lda	#$80
    2a35:	8d 4f 3d    	sta	$3D4F
    2a38:	60          	rts	
    2a39:	ad 48 3d    	lda	$3D48
    2a3c:	d0 05       	bne	$2A43
    2a3e:	ad 47 3d    	lda	$3D47
    2a41:	f0 03       	beq	$2A46
    2a43:	a9 ff       	lda	#$FF
    2a45:	60          	rts	
    2a46:	a9 00       	lda	#$00
    2a48:	8d 59 3d    	sta	$3D59
    2a4b:	ad 49 3d    	lda	$3D49
    2a4e:	8d 5a 3d    	sta	$3D5A
    2a51:	ad 4a 3d    	lda	$3D4A
    2a54:	8d 5b 3d    	sta	$3D5B
    2a57:	a9 00       	lda	#$00
    2a59:	8d 4d 3d    	sta	$3D4D
    2a5c:	ad 5b 3d    	lda	$3D5B
    2a5f:	d0 10       	bne	$2A71
    2a61:	ad 5a 3d    	lda	$3D5A
    2a64:	c9 03       	cmp	#$03
    2a66:	90 27       	bcc	$2A8F
    2a68:	d0 07       	bne	$2A71
    2a6a:	ad 59 3d    	lda	$3D59
    2a6d:	c9 e8       	cmp	#$E8
    2a6f:	90 1e       	bcc	$2A8F
    2a71:	38          	sec	
    2a72:	ad 59 3d    	lda	$3D59
    2a75:	e9 e8       	sbc	#$E8
    2a77:	8d 59 3d    	sta	$3D59
    2a7a:	ad 5a 3d    	lda	$3D5A
    2a7d:	e9 03       	sbc	#$03
    2a7f:	8d 5a 3d    	sta	$3D5A
    2a82:	ad 5b 3d    	lda	$3D5B
    2a85:	e9 00       	sbc	#$00
    2a87:	8d 5b 3d    	sta	$3D5B
    2a8a:	ee 4d 3d    	inc	$3D4D
    2a8d:	d0 cd       	bne	$2A5C
    2a8f:	ad 4d 3d    	lda	$3D4D
    2a92:	60          	rts	
    2a93:	a0 00       	ldy	#$00
    2a95:	ad 56 3d    	lda	$3D56
    2a98:	91 26       	sta	($26),y
    2a9a:	c8          	iny	
    2a9b:	ad 57 3d    	lda	$3D57
    2a9e:	91 26       	sta	($26),y
    2aa0:	c8          	iny	
    2aa1:	ad 58 3d    	lda	$3D58
    2aa4:	91 26       	sta	($26),y
    2aa6:	18          	clc	
    2aa7:	a5 26       	lda	$26
    2aa9:	69 03       	adc	#$03
    2aab:	85 26       	sta	$26
    2aad:	90 02       	bcc	$2AB1
    2aaf:	e6 27       	inc	$27
    2ab1:	ee 33 3d    	inc	$3D33
    2ab4:	ad 33 3d    	lda	$3D33
    2ab7:	c9 ff       	cmp	#$FF
    2ab9:	d0 03       	bne	$2ABE
    2abb:	20 bf 2a    	jsr	$2ABF
    2abe:	60          	rts	
    2abf:	ad 33 3d    	lda	$3D33
    2ac2:	f0 72       	beq	$2B36
    2ac4:	ad 33 3d    	lda	$3D33
    2ac7:	8d 39 3d    	sta	$3D39
    2aca:	a9 00       	lda	#$00
    2acc:	8d 3a 3d    	sta	$3D3A
    2acf:	ad 39 3d    	lda	$3D39
    2ad2:	8d 3b 3d    	sta	$3D3B
    2ad5:	ad 3a 3d    	lda	$3D3A
    2ad8:	8d 3c 3d    	sta	$3D3C
    2adb:	0e 39 3d    	asl	$3D39
    2ade:	2e 3a 3d    	rol	$3D3A
    2ae1:	18          	clc	
    2ae2:	ad 39 3d    	lda	$3D39
    2ae5:	6d 3b 3d    	adc	$3D3B
    2ae8:	8d 39 3d    	sta	$3D39
    2aeb:	ad 3a 3d    	lda	$3D3A
    2aee:	6d 3c 3d    	adc	$3D3C
    2af1:	8d 3a 3d    	sta	$3D3A
    2af4:	a9 3c       	lda	#$3C
    2af6:	85 20       	sta	$20
    2af8:	a9 2b       	lda	#$2B
    2afa:	85 21       	sta	$21
    2afc:	a0 04       	ldy	#$04
    2afe:	ad 39 3d    	lda	$3D39
    2b01:	91 20       	sta	($20),y
    2b03:	c8          	iny	
    2b04:	ad 3a 3d    	lda	$3D3A
    2b07:	91 20       	sta	($20),y
    2b09:	a0 09       	ldy	#$09
    2b0b:	ad 66 3d    	lda	$3D66
    2b0e:	91 20       	sta	($20),y
    2b10:	c8          	iny	
    2b11:	ad 67 3d    	lda	$3D67
    2b14:	91 20       	sta	($20),y
    2b16:	c8          	iny	
    2b17:	ad 65 3d    	lda	$3D65
    2b1a:	91 20       	sta	($20),y
    2b1c:	a0 01       	ldy	#$01
    2b1e:	ad 64 3d    	lda	$3D64
    2b21:	91 20       	sta	($20),y
    2b23:	a0 06       	ldy	#$06
    2b25:	a9 4d       	lda	#$4D
    2b27:	91 20       	sta	($20),y
    2b29:	c8          	iny	
    2b2a:	a9 4b       	lda	#$4B
    2b2c:	91 20       	sta	($20),y
    2b2e:	c8          	iny	
    2b2f:	a9 00       	lda	#$00
    2b31:	91 20       	sta	($20),y
    2b33:	4c 37 2b    	jmp	$2B37
    2b36:	60          	rts	
    2b37:	a9 00       	lda	#$00
    2b39:	8d 07 d7    	sta	$D707
    2b3c:	81 00       	sta	($00,x)
    2b3e:	00          	brk	
    2b3f:	00          	brk	
    2b40:	00          	brk	
    2b41:	00          	brk	
    2b42:	00          	brk	
    2b43:	00          	brk	
    2b44:	00          	brk	
    2b45:	00          	brk	
    2b46:	00          	brk	
    2b47:	00          	brk	
    2b48:	00          	brk	
    2b49:	00          	brk	
    2b4a:	18          	clc	
    2b4b:	ad 66 3d    	lda	$3D66
    2b4e:	6d 39 3d    	adc	$3D39
    2b51:	8d 66 3d    	sta	$3D66
    2b54:	ad 67 3d    	lda	$3D67
    2b57:	6d 3a 3d    	adc	$3D3A
    2b5a:	8d 67 3d    	sta	$3D67
    2b5d:	ad 65 3d    	lda	$3D65
    2b60:	69 00       	adc	#$00
    2b62:	8d 65 3d    	sta	$3D65
    2b65:	c9 10       	cmp	#$10
    2b67:	d0 08       	bne	$2B71
    2b69:	a9 00       	lda	#$00
    2b6b:	8d 65 3d    	sta	$3D65
    2b6e:	ee 64 3d    	inc	$3D64
    2b71:	a9 4d       	lda	#$4D
    2b73:	85 26       	sta	$26
    2b75:	a9 4b       	lda	#$4B
    2b77:	85 27       	sta	$27
    2b79:	a9 00       	lda	#$00
    2b7b:	8d 33 3d    	sta	$3D33
    2b7e:	60          	rts	
    2b7f:	ad 4f 3d    	lda	$3D4F
    2b82:	f0 03       	beq	$2B87
    2b84:	a9 ff       	lda	#$FF
    2b86:	60          	rts	
    2b87:	ad 4e 3d    	lda	$3D4E
    2b8a:	60          	rts	
    2b8b:	20 22 2c    	jsr	$2C22
    2b8e:	ad 23 3d    	lda	$3D23
    2b91:	d0 69       	bne	$2BFC
    2b93:	ad 29 3d    	lda	$3D29
    2b96:	f0 64       	beq	$2BFC
    2b98:	20 fd 2b    	jsr	$2BFD
    2b9b:	ad 3d 3d    	lda	$3D3D
    2b9e:	8d 41 3d    	sta	$3D41
    2ba1:	ad 3e 3d    	lda	$3D3E
    2ba4:	8d 42 3d    	sta	$3D42
    2ba7:	20 22 2c    	jsr	$2C22
    2baa:	ad 23 3d    	lda	$3D23
    2bad:	d0 4d       	bne	$2BFC
    2baf:	ad 29 3d    	lda	$3D29
    2bb2:	f0 48       	beq	$2BFC
    2bb4:	20 fd 2b    	jsr	$2BFD
    2bb7:	ad 3d 3d    	lda	$3D3D
    2bba:	8d 43 3d    	sta	$3D43
    2bbd:	ad 3e 3d    	lda	$3D3E
    2bc0:	8d 44 3d    	sta	$3D44
    2bc3:	20 22 2c    	jsr	$2C22
    2bc6:	ad 23 3d    	lda	$3D23
    2bc9:	d0 31       	bne	$2BFC
    2bcb:	ad 29 3d    	lda	$3D29
    2bce:	f0 2c       	beq	$2BFC
    2bd0:	20 fd 2b    	jsr	$2BFD
    2bd3:	ad 3d 3d    	lda	$3D3D
    2bd6:	8d 45 3d    	sta	$3D45
    2bd9:	ad 3e 3d    	lda	$3D3E
    2bdc:	8d 46 3d    	sta	$3D46
    2bdf:	20 c4 2c    	jsr	$2CC4
    2be2:	ad 45 3d    	lda	$3D45
    2be5:	8d 43 3d    	sta	$3D43
    2be8:	ad 46 3d    	lda	$3D46
    2beb:	8d 44 3d    	sta	$3D44
    2bee:	ad 27 3d    	lda	$3D27
    2bf1:	c9 0d       	cmp	#$0D
    2bf3:	f0 07       	beq	$2BFC
    2bf5:	c9 0a       	cmp	#$0A
    2bf7:	f0 03       	beq	$2BFC
    2bf9:	4c c3 2b    	jmp	$2BC3
    2bfc:	60          	rts	
    2bfd:	38          	sec	
    2bfe:	ad 3f 3d    	lda	$3D3F
    2c01:	e9 01       	sbc	#$01
    2c03:	8d 3d 3d    	sta	$3D3D
    2c06:	ad 40 3d    	lda	$3D40
    2c09:	e9 00       	sbc	#$00
    2c0b:	8d 3e 3d    	sta	$3D3E
    2c0e:	18          	clc	
    2c0f:	ad 3d 3d    	lda	$3D3D
    2c12:	6d 37 3d    	adc	$3D37
    2c15:	8d 3d 3d    	sta	$3D3D
    2c18:	ad 3e 3d    	lda	$3D3E
    2c1b:	6d 38 3d    	adc	$3D38
    2c1e:	8d 3e 3d    	sta	$3D3E
    2c21:	60          	rts	
    2c22:	a9 00       	lda	#$00
    2c24:	8d 3f 3d    	sta	$3D3F
    2c27:	8d 40 3d    	sta	$3D40
    2c2a:	8d 29 3d    	sta	$3D29
    2c2d:	20 03 24    	jsr	$2403
    2c30:	ad 23 3d    	lda	$3D23
    2c33:	d0 69       	bne	$2C9E
    2c35:	ad 27 3d    	lda	$3D27
    2c38:	c9 20       	cmp	#$20
    2c3a:	f0 f1       	beq	$2C2D
    2c3c:	c9 09       	cmp	#$09
    2c3e:	f0 ed       	beq	$2C2D
    2c40:	c9 0d       	cmp	#$0D
    2c42:	f0 5a       	beq	$2C9E
    2c44:	c9 0a       	cmp	#$0A
    2c46:	f0 56       	beq	$2C9E
    2c48:	20 93 26    	jsr	$2693
    2c4b:	d0 51       	bne	$2C9E
    2c4d:	a9 01       	lda	#$01
    2c4f:	8d 29 3d    	sta	$3D29
    2c52:	ad 27 3d    	lda	$3D27
    2c55:	48          	pha	
    2c56:	20 9f 2c    	jsr	$2C9F
    2c59:	68          	pla	
    2c5a:	38          	sec	
    2c5b:	e9 30       	sbc	#$30
    2c5d:	18          	clc	
    2c5e:	6d 3f 3d    	adc	$3D3F
    2c61:	8d 3f 3d    	sta	$3D3F
    2c64:	90 03       	bcc	$2C69
    2c66:	ee 40 3d    	inc	$3D40
    2c69:	20 03 24    	jsr	$2403
    2c6c:	ad 23 3d    	lda	$3D23
    2c6f:	d0 2d       	bne	$2C9E
    2c71:	ad 27 3d    	lda	$3D27
    2c74:	20 93 26    	jsr	$2693
    2c77:	f0 d4       	beq	$2C4D
    2c79:	ad 27 3d    	lda	$3D27
    2c7c:	c9 2f       	cmp	#$2F
    2c7e:	d0 1e       	bne	$2C9E
    2c80:	20 03 24    	jsr	$2403
    2c83:	ad 23 3d    	lda	$3D23
    2c86:	d0 16       	bne	$2C9E
    2c88:	ad 27 3d    	lda	$3D27
    2c8b:	c9 20       	cmp	#$20
    2c8d:	f0 0f       	beq	$2C9E
    2c8f:	c9 09       	cmp	#$09
    2c91:	f0 0b       	beq	$2C9E
    2c93:	c9 0d       	cmp	#$0D
    2c95:	f0 07       	beq	$2C9E
    2c97:	c9 0a       	cmp	#$0A
    2c99:	f0 03       	beq	$2C9E
    2c9b:	4c 80 2c    	jmp	$2C80
    2c9e:	60          	rts	
    2c9f:	ad 3f 3d    	lda	$3D3F
    2ca2:	ae 40 3d    	ldx	$3D40
    2ca5:	8d 70 d7    	sta	$D770
    2ca8:	8a          	txa	
    2ca9:	8d 71 d7    	sta	$D771
    2cac:	a9 0a       	lda	#$0A
    2cae:	8d 74 d7    	sta	$D774
    2cb1:	a9 00       	lda	#$00
    2cb3:	8d 75 d7    	sta	$D775
    2cb6:	ad 79 d7    	lda	$D779
    2cb9:	aa          	tax	
    2cba:	ad 78 d7    	lda	$D778
    2cbd:	8d 3f 3d    	sta	$3D3F
    2cc0:	8e 40 3d    	stx	$3D40
    2cc3:	60          	rts	
    2cc4:	a0 00       	ldy	#$00
    2cc6:	ad 41 3d    	lda	$3D41
    2cc9:	91 24       	sta	($24),y
    2ccb:	c8          	iny	
    2ccc:	ad 42 3d    	lda	$3D42
    2ccf:	91 24       	sta	($24),y
    2cd1:	c8          	iny	
    2cd2:	ad 43 3d    	lda	$3D43
    2cd5:	91 24       	sta	($24),y
    2cd7:	c8          	iny	
    2cd8:	ad 44 3d    	lda	$3D44
    2cdb:	91 24       	sta	($24),y
    2cdd:	c8          	iny	
    2cde:	ad 45 3d    	lda	$3D45
    2ce1:	91 24       	sta	($24),y
    2ce3:	c8          	iny	
    2ce4:	ad 46 3d    	lda	$3D46
    2ce7:	91 24       	sta	($24),y
    2ce9:	18          	clc	
    2cea:	a5 24       	lda	$24
    2cec:	69 06       	adc	#$06
    2cee:	85 24       	sta	$24
    2cf0:	90 02       	bcc	$2CF4
    2cf2:	e6 25       	inc	$25
    2cf4:	ee 32 3d    	inc	$3D32
    2cf7:	ad 32 3d    	lda	$3D32
    2cfa:	c9 ff       	cmp	#$FF
    2cfc:	d0 03       	bne	$2D01
    2cfe:	20 0a 2d    	jsr	$2D0A
    2d01:	ee 2d 3d    	inc	$3D2D
    2d04:	d0 03       	bne	$2D09
    2d06:	ee 2e 3d    	inc	$3D2E
    2d09:	60          	rts	
    2d0a:	ad 32 3d    	lda	$3D32
    2d0d:	f0 78       	beq	$2D87
    2d0f:	ad 32 3d    	lda	$3D32
    2d12:	8d 39 3d    	sta	$3D39
    2d15:	a9 00       	lda	#$00
    2d17:	8d 3a 3d    	sta	$3D3A
    2d1a:	0e 39 3d    	asl	$3D39
    2d1d:	2e 3a 3d    	rol	$3D3A
    2d20:	ad 39 3d    	lda	$3D39
    2d23:	8d 3b 3d    	sta	$3D3B
    2d26:	ad 3a 3d    	lda	$3D3A
    2d29:	8d 3c 3d    	sta	$3D3C
    2d2c:	0e 39 3d    	asl	$3D39
    2d2f:	2e 3a 3d    	rol	$3D3A
    2d32:	18          	clc	
    2d33:	ad 39 3d    	lda	$3D39
    2d36:	6d 3b 3d    	adc	$3D3B
    2d39:	8d 39 3d    	sta	$3D39
    2d3c:	ad 3a 3d    	lda	$3D3A
    2d3f:	6d 3c 3d    	adc	$3D3C
    2d42:	8d 3a 3d    	sta	$3D3A
    2d45:	a9 8d       	lda	#$8D
    2d47:	85 20       	sta	$20
    2d49:	a9 2d       	lda	#$2D
    2d4b:	85 21       	sta	$21
    2d4d:	a0 04       	ldy	#$04
    2d4f:	ad 39 3d    	lda	$3D39
    2d52:	91 20       	sta	($20),y
    2d54:	c8          	iny	
    2d55:	ad 3a 3d    	lda	$3D3A
    2d58:	91 20       	sta	($20),y
    2d5a:	a0 09       	ldy	#$09
    2d5c:	ad 62 3d    	lda	$3D62
    2d5f:	91 20       	sta	($20),y
    2d61:	c8          	iny	
    2d62:	ad 63 3d    	lda	$3D63
    2d65:	91 20       	sta	($20),y
    2d67:	c8          	iny	
    2d68:	ad 61 3d    	lda	$3D61
    2d6b:	91 20       	sta	($20),y
    2d6d:	a0 01       	ldy	#$01
    2d6f:	ad 60 3d    	lda	$3D60
    2d72:	91 20       	sta	($20),y
    2d74:	a0 06       	ldy	#$06
    2d76:	a9 53       	lda	#$53
    2d78:	91 20       	sta	($20),y
    2d7a:	c8          	iny	
    2d7b:	a9 45       	lda	#$45
    2d7d:	91 20       	sta	($20),y
    2d7f:	c8          	iny	
    2d80:	a9 00       	lda	#$00
    2d82:	91 20       	sta	($20),y
    2d84:	4c 88 2d    	jmp	$2D88
    2d87:	60          	rts	
    2d88:	a9 00       	lda	#$00
    2d8a:	8d 07 d7    	sta	$D707
    2d8d:	81 00       	sta	($00,x)
    2d8f:	00          	brk	
    2d90:	00          	brk	
    2d91:	00          	brk	
    2d92:	00          	brk	
    2d93:	00          	brk	
    2d94:	00          	brk	
    2d95:	00          	brk	
    2d96:	00          	brk	
    2d97:	00          	brk	
    2d98:	00          	brk	
    2d99:	00          	brk	
    2d9a:	00          	brk	
    2d9b:	18          	clc	
    2d9c:	ad 62 3d    	lda	$3D62
    2d9f:	6d 39 3d    	adc	$3D39
    2da2:	8d 62 3d    	sta	$3D62
    2da5:	ad 63 3d    	lda	$3D63
    2da8:	6d 3a 3d    	adc	$3D3A
    2dab:	8d 63 3d    	sta	$3D63
    2dae:	ad 61 3d    	lda	$3D61
    2db1:	69 00       	adc	#$00
    2db3:	8d 61 3d    	sta	$3D61
    2db6:	c9 10       	cmp	#$10
    2db8:	d0 08       	bne	$2DC2
    2dba:	a9 00       	lda	#$00
    2dbc:	8d 61 3d    	sta	$3D61
    2dbf:	ee 60 3d    	inc	$3D60
    2dc2:	a9 53       	lda	#$53
    2dc4:	85 24       	sta	$24
    2dc6:	a9 45       	lda	#$45
    2dc8:	85 25       	sta	$25
    2dca:	a9 00       	lda	#$00
    2dcc:	8d 32 3d    	sta	$3D32
    2dcf:	60          	rts	
    2dd0:	c9 20       	cmp	#$20
    2dd2:	f0 0c       	beq	$2DE0
    2dd4:	c9 0d       	cmp	#$0D
    2dd6:	f0 08       	beq	$2DE0
    2dd8:	c9 0a       	cmp	#$0A
    2dda:	f0 04       	beq	$2DE0
    2ddc:	c9 09       	cmp	#$09
    2dde:	f0 00       	beq	$2DE0
    2de0:	60          	rts	
    2de1:	20 cc ff    	jsr	$FFCC
    2de4:	a9 01       	lda	#$01
    2de6:	20 c3 ff    	jsr	$FFC3
    2de9:	60          	rts	
    2dea:	43          	asr	a
    2deb:	2c 53 a9    	bit	$A953
    2dee:	00          	brk	
    2def:	a9 00       	lda	#$00
    2df1:	a9 00       	lda	#$00
    2df3:	a9 00       	lda	#$00
    2df5:	a9 00       	lda	#$00
    2df7:	a9 00       	lda	#$00
    2df9:	60          	rts	
    2dfa:	a9 00       	lda	#$00
    2dfc:	a9 00       	lda	#$00
    2dfe:	a9 00       	lda	#$00
    2e00:	a9 82       	lda	#$82
    2e02:	85 00       	sta	$00
    2e04:	a9 00       	lda	#$00
    2e06:	85 00       	sta	$00
    2e08:	85 00       	sta	$00
    2e0a:	85 00       	sta	$00
    2e0c:	60          	rts	
    2e0d:	20 5b 2e    	jsr	$2E5B
    2e10:	20 6f 2e    	jsr	$2E6F
    2e13:	20 c6 2e    	jsr	$2EC6
    2e16:	20 e6 2e    	jsr	$2EE6
    2e19:	a9 00       	lda	#$00
    2e1b:	8d 60 0b    	sta	$0B60
    2e1e:	a9 00       	lda	#$00
    2e20:	8d 61 0b    	sta	$0B61
    2e23:	ad 61 0b    	lda	$0B61
    2e26:	c5 00       	cmp	$00
    2e28:	d0 07       	bne	$2E31
    2e2a:	ad 60 0b    	lda	$0B60
    2e2d:	c5 00       	cmp	$00
    2e2f:	f0 23       	beq	$2E54
    2e31:	20 06 2f    	jsr	$2F06
    2e34:	20 9e 2f    	jsr	$2F9E
    2e37:	20 c3 2f    	jsr	$2FC3
    2e3a:	20 66 31    	jsr	$3166
    2e3d:	20 ca 33    	jsr	$33CA
    2e40:	20 fe 33    	jsr	$33FE
    2e43:	20 fb 34    	jsr	$34FB
    2e46:	20 9b 38    	jsr	$389B
    2e49:	ee 60 0b    	inc	$0B60
    2e4c:	d0 d5       	bne	$2E23
    2e4e:	ee 61 0b    	inc	$0B61
    2e51:	4c 23 2e    	jmp	$2E23
    2e54:	20 3f 34    	jsr	$343F
    2e57:	20 d0 38    	jsr	$38D0
    2e5a:	60          	rts	
    2e5b:	18          	clc	
    2e5c:	a5 00       	lda	$00
    2e5e:	65 00       	adc	$00
    2e60:	85 00       	sta	$00
    2e62:	a5 00       	lda	$00
    2e64:	65 00       	adc	$00
    2e66:	85 00       	sta	$00
    2e68:	a5 00       	lda	$00
    2e6a:	65 00       	adc	$00
    2e6c:	85 00       	sta	$00
    2e6e:	60          	rts	
    2e6f:	a5 00       	lda	$00
    2e71:	20 bb 2e    	jsr	$2EBB
    2e74:	8d 78 0b    	sta	$0B78
    2e77:	8e 79 0b    	stx	$0B79
    2e7a:	a5 00       	lda	$00
    2e7c:	18          	clc	
    2e7d:	69 40       	adc	#$40
    2e7f:	20 bb 2e    	jsr	$2EBB
    2e82:	8d 7a 0b    	sta	$0B7A
    2e85:	8e 7b 0b    	stx	$0B7B
    2e88:	a5 00       	lda	$00
    2e8a:	20 bb 2e    	jsr	$2EBB
    2e8d:	8d 7c 0b    	sta	$0B7C
    2e90:	8e 7d 0b    	stx	$0B7D
    2e93:	a5 00       	lda	$00
    2e95:	18          	clc	
    2e96:	69 40       	adc	#$40
    2e98:	20 bb 2e    	jsr	$2EBB
    2e9b:	8d 7e 0b    	sta	$0B7E
    2e9e:	8e 7f 0b    	stx	$0B7F
    2ea1:	a5 00       	lda	$00
    2ea3:	20 bb 2e    	jsr	$2EBB
    2ea6:	8d 80 0b    	sta	$0B80
    2ea9:	8e 81 0b    	stx	$0B81
    2eac:	a5 00       	lda	$00
    2eae:	18          	clc	
    2eaf:	69 40       	adc	#$40
    2eb1:	20 bb 2e    	jsr	$2EBB
    2eb4:	8d 82 0b    	sta	$0B82
    2eb7:	8e 83 0b    	stx	$0B83
    2eba:	60          	rts	
    2ebb:	aa          	tax	
    2ebc:	8a          	txa	
    2ebd:	0a          	asl	a
    2ebe:	a8          	tay	
    2ebf:	b9 8e 3d    	lda	$3D8E,y
    2ec2:	be 8f 3d    	ldx	$3D8F,y
    2ec5:	60          	rts	
    2ec6:	a9 b1       	lda	#$B1
    2ec8:	8d 7c 3d    	sta	$3D7C
    2ecb:	a9 0d       	lda	#$0D
    2ecd:	8d 7d 3d    	sta	$3D7D
    2ed0:	a9 00       	lda	#$00
    2ed2:	8d 7e 3d    	sta	$3D7E
    2ed5:	a9 83       	lda	#$83
    2ed7:	8d 7f 3d    	sta	$3D7F
    2eda:	a9 00       	lda	#$00
    2edc:	8d 80 3d    	sta	$3D80
    2edf:	8d 81 3d    	sta	$3D81
    2ee2:	8d 82 3d    	sta	$3D82
    2ee5:	60          	rts	
    2ee6:	a9 19       	lda	#$19
    2ee8:	8d 83 3d    	sta	$3D83
    2eeb:	a9 54       	lda	#$54
    2eed:	8d 84 3d    	sta	$3D84
    2ef0:	a9 00       	lda	#$00
    2ef2:	8d 85 3d    	sta	$3D85
    2ef5:	a9 82       	lda	#$82
    2ef7:	8d 86 3d    	sta	$3D86
    2efa:	a9 00       	lda	#$00
    2efc:	8d 87 3d    	sta	$3D87
    2eff:	8d 88 3d    	sta	$3D88
    2f02:	8d 89 3d    	sta	$3D89
    2f05:	60          	rts	
    2f06:	20 66 2f    	jsr	$2F66
    2f09:	a9 00       	lda	#$00
    2f0b:	8d 8a 3d    	sta	$3D8A
    2f0e:	a9 00       	lda	#$00
    2f10:	8d 8b 3d    	sta	$3D8B
    2f13:	a9 00       	lda	#$00
    2f15:	8d 8c 3d    	sta	$3D8C
    2f18:	a9 08       	lda	#$08
    2f1a:	8d 8d 3d    	sta	$3D8D
    2f1d:	18          	clc	
    2f1e:	ad 8a 3d    	lda	$3D8A
    2f21:	6d 62 0b    	adc	$0B62
    2f24:	8d 8a 3d    	sta	$3D8A
    2f27:	ad 8b 3d    	lda	$3D8B
    2f2a:	6d 63 0b    	adc	$0B63
    2f2d:	8d 8b 3d    	sta	$3D8B
    2f30:	90 08       	bcc	$2F3A
    2f32:	ee 8c 3d    	inc	$3D8C
    2f35:	d0 03       	bne	$2F3A
    2f37:	ee 8d 3d    	inc	$3D8D
    2f3a:	a3 00       	ldz	#$00
    2f3c:	ea          	eom	
    2f3d:	b2 ad       	lda	($AD),z
    2f3f:	8d 68 0b    	sta	$0B68
    2f42:	1b          	inz	
    2f43:	ea          	eom	
    2f44:	b2 ad       	lda	($AD),z
    2f46:	8d 69 0b    	sta	$0B69
    2f49:	1b          	inz	
    2f4a:	ea          	eom	
    2f4b:	b2 ad       	lda	($AD),z
    2f4d:	8d 6a 0b    	sta	$0B6A
    2f50:	1b          	inz	
    2f51:	ea          	eom	
    2f52:	b2 ad       	lda	($AD),z
    2f54:	8d 6b 0b    	sta	$0B6B
    2f57:	1b          	inz	
    2f58:	ea          	eom	
    2f59:	b2 ad       	lda	($AD),z
    2f5b:	8d 6c 0b    	sta	$0B6C
    2f5e:	1b          	inz	
    2f5f:	ea          	eom	
    2f60:	b2 ad       	lda	($AD),z
    2f62:	8d 6d 0b    	sta	$0B6D
    2f65:	60          	rts	
    2f66:	ad 60 0b    	lda	$0B60
    2f69:	8d 62 0b    	sta	$0B62
    2f6c:	ad 61 0b    	lda	$0B61
    2f6f:	8d 63 0b    	sta	$0B63
    2f72:	0e 62 0b    	asl	$0B62
    2f75:	2e 63 0b    	rol	$0B63
    2f78:	ad 62 0b    	lda	$0B62
    2f7b:	8d 64 0b    	sta	$0B64
    2f7e:	ad 63 0b    	lda	$0B63
    2f81:	8d 65 0b    	sta	$0B65
    2f84:	0e 62 0b    	asl	$0B62
    2f87:	2e 63 0b    	rol	$0B63
    2f8a:	18          	clc	
    2f8b:	ad 62 0b    	lda	$0B62
    2f8e:	6d 64 0b    	adc	$0B64
    2f91:	8d 62 0b    	sta	$0B62
    2f94:	ad 63 0b    	lda	$0B63
    2f97:	6d 65 0b    	adc	$0B65
    2f9a:	8d 63 0b    	sta	$0B63
    2f9d:	60          	rts	
    2f9e:	ad 68 0b    	lda	$0B68
    2fa1:	8d 6e 0b    	sta	$0B6E
    2fa4:	ad 69 0b    	lda	$0B69
    2fa7:	8d 6f 0b    	sta	$0B6F
    2faa:	ad 6a 0b    	lda	$0B6A
    2fad:	8d 70 0b    	sta	$0B70
    2fb0:	ad 6b 0b    	lda	$0B6B
    2fb3:	8d 71 0b    	sta	$0B71
    2fb6:	ad 6c 0b    	lda	$0B6C
    2fb9:	8d 72 0b    	sta	$0B72
    2fbc:	ad 6d 0b    	lda	$0B6D
    2fbf:	8d 73 0b    	sta	$0B73
    2fc2:	60          	rts	
    2fc3:	ad 6e 0b    	lda	$0B6E
    2fc6:	8d 84 0b    	sta	$0B84
    2fc9:	ad 6f 0b    	lda	$0B6F
    2fcc:	8d 85 0b    	sta	$0B85
    2fcf:	a5 00       	lda	$00
    2fd1:	8d 86 0b    	sta	$0B86
    2fd4:	a5 01       	lda	$01
    2fd6:	8d 87 0b    	sta	$0B87
    2fd9:	20 33 30    	jsr	$3033
    2fdc:	ad 66 0b    	lda	$0B66
    2fdf:	8d 6e 0b    	sta	$0B6E
    2fe2:	ad 67 0b    	lda	$0B67
    2fe5:	8d 6f 0b    	sta	$0B6F
    2fe8:	ad 70 0b    	lda	$0B70
    2feb:	8d 84 0b    	sta	$0B84
    2fee:	ad 71 0b    	lda	$0B71
    2ff1:	8d 85 0b    	sta	$0B85
    2ff4:	a5 00       	lda	$00
    2ff6:	8d 86 0b    	sta	$0B86
    2ff9:	a5 01       	lda	$01
    2ffb:	8d 87 0b    	sta	$0B87
    2ffe:	20 33 30    	jsr	$3033
    3001:	ad 66 0b    	lda	$0B66
    3004:	8d 70 0b    	sta	$0B70
    3007:	ad 67 0b    	lda	$0B67
    300a:	8d 71 0b    	sta	$0B71
    300d:	ad 72 0b    	lda	$0B72
    3010:	8d 84 0b    	sta	$0B84
    3013:	ad 73 0b    	lda	$0B73
    3016:	8d 85 0b    	sta	$0B85
    3019:	a5 00       	lda	$00
    301b:	8d 86 0b    	sta	$0B86
    301e:	a5 01       	lda	$01
    3020:	8d 87 0b    	sta	$0B87
    3023:	20 33 30    	jsr	$3033
    3026:	ad 66 0b    	lda	$0B66
    3029:	8d 72 0b    	sta	$0B72
    302c:	ad 67 0b    	lda	$0B67
    302f:	8d 73 0b    	sta	$0B73
    3032:	60          	rts	
    3033:	20 5f 30    	jsr	$305F
    3036:	a2 08       	ldx	#$08
    3038:	ad 6a 3d    	lda	$3D6A
    303b:	29 80       	and	#$80
    303d:	f0 03       	beq	$3042
    303f:	38          	sec	
    3040:	b0 01       	bcs	$3043
    3042:	18          	clc	
    3043:	6e 6a 3d    	ror	$3D6A
    3046:	6e 69 3d    	ror	$3D69
    3049:	6e 68 3d    	ror	$3D68
    304c:	6e 8a 0b    	ror	$0B8A
    304f:	ca          	dex	
    3050:	d0 e6       	bne	$3038
    3052:	ad 8a 0b    	lda	$0B8A
    3055:	8d 66 0b    	sta	$0B66
    3058:	ad 68 3d    	lda	$3D68
    305b:	8d 67 0b    	sta	$0B67
    305e:	60          	rts	
    305f:	ad 85 0b    	lda	$0B85
    3062:	4d 87 0b    	eor	$0B87
    3065:	29 80       	and	#$80
    3067:	8d 89 0b    	sta	$0B89
    306a:	ad 85 0b    	lda	$0B85
    306d:	10 21       	bpl	$3090
    306f:	ad 84 0b    	lda	$0B84
    3072:	49 ff       	eor	#$FF
    3074:	8d 84 0b    	sta	$0B84
    3077:	ad 85 0b    	lda	$0B85
    307a:	49 ff       	eor	#$FF
    307c:	8d 85 0b    	sta	$0B85
    307f:	18          	clc	
    3080:	ad 84 0b    	lda	$0B84
    3083:	69 01       	adc	#$01
    3085:	8d 84 0b    	sta	$0B84
    3088:	ad 85 0b    	lda	$0B85
    308b:	69 00       	adc	#$00
    308d:	8d 85 0b    	sta	$0B85
    3090:	ad 87 0b    	lda	$0B87
    3093:	10 21       	bpl	$30B6
    3095:	ad 86 0b    	lda	$0B86
    3098:	49 ff       	eor	#$FF
    309a:	8d 86 0b    	sta	$0B86
    309d:	ad 87 0b    	lda	$0B87
    30a0:	49 ff       	eor	#$FF
    30a2:	8d 87 0b    	sta	$0B87
    30a5:	18          	clc	
    30a6:	ad 86 0b    	lda	$0B86
    30a9:	69 01       	adc	#$01
    30ab:	8d 86 0b    	sta	$0B86
    30ae:	ad 87 0b    	lda	$0B87
    30b1:	69 00       	adc	#$00
    30b3:	8d 87 0b    	sta	$0B87
    30b6:	a9 00       	lda	#$00
    30b8:	8d 8a 0b    	sta	$0B8A
    30bb:	8d 68 3d    	sta	$3D68
    30be:	8d 69 3d    	sta	$3D69
    30c1:	8d 6a 3d    	sta	$3D6A
    30c4:	ad 84 0b    	lda	$0B84
    30c7:	8d 66 0b    	sta	$0B66
    30ca:	ad 85 0b    	lda	$0B85
    30cd:	8d 67 0b    	sta	$0B67
    30d0:	a9 00       	lda	#$00
    30d2:	8d 6b 3d    	sta	$3D6B
    30d5:	8d 6c 3d    	sta	$3D6C
    30d8:	a2 10       	ldx	#$10
    30da:	ad 86 0b    	lda	$0B86
    30dd:	29 01       	and	#$01
    30df:	f0 25       	beq	$3106
    30e1:	18          	clc	
    30e2:	ad 8a 0b    	lda	$0B8A
    30e5:	6d 66 0b    	adc	$0B66
    30e8:	8d 8a 0b    	sta	$0B8A
    30eb:	ad 68 3d    	lda	$3D68
    30ee:	6d 67 0b    	adc	$0B67
    30f1:	8d 68 3d    	sta	$3D68
    30f4:	ad 69 3d    	lda	$3D69
    30f7:	6d 6b 3d    	adc	$3D6B
    30fa:	8d 69 3d    	sta	$3D69
    30fd:	ad 6a 3d    	lda	$3D6A
    3100:	6d 6c 3d    	adc	$3D6C
    3103:	8d 6a 3d    	sta	$3D6A
    3106:	0e 66 0b    	asl	$0B66
    3109:	2e 67 0b    	rol	$0B67
    310c:	2e 6b 3d    	rol	$3D6B
    310f:	2e 6c 3d    	rol	$3D6C
    3112:	4e 87 0b    	lsr	$0B87
    3115:	6e 86 0b    	ror	$0B86
    3118:	ca          	dex	
    3119:	d0 bf       	bne	$30DA
    311b:	ad 89 0b    	lda	$0B89
    311e:	f0 03       	beq	$3123
    3120:	20 24 31    	jsr	$3124
    3123:	60          	rts	
    3124:	ad 8a 0b    	lda	$0B8A
    3127:	49 ff       	eor	#$FF
    3129:	8d 8a 0b    	sta	$0B8A
    312c:	ad 68 3d    	lda	$3D68
    312f:	49 ff       	eor	#$FF
    3131:	8d 68 3d    	sta	$3D68
    3134:	ad 69 3d    	lda	$3D69
    3137:	49 ff       	eor	#$FF
    3139:	8d 69 3d    	sta	$3D69
    313c:	ad 6a 3d    	lda	$3D6A
    313f:	49 ff       	eor	#$FF
    3141:	8d 6a 3d    	sta	$3D6A
    3144:	18          	clc	
    3145:	ad 8a 0b    	lda	$0B8A
    3148:	69 01       	adc	#$01
    314a:	8d 8a 0b    	sta	$0B8A
    314d:	ad 68 3d    	lda	$3D68
    3150:	69 00       	adc	#$00
    3152:	8d 68 3d    	sta	$3D68
    3155:	ad 69 3d    	lda	$3D69
    3158:	69 00       	adc	#$00
    315a:	8d 69 3d    	sta	$3D69
    315d:	ad 6a 3d    	lda	$3D6A
    3160:	69 00       	adc	#$00
    3162:	8d 6a 3d    	sta	$3D6A
    3165:	60          	rts	
    3166:	ad 70 0b    	lda	$0B70
    3169:	8d 76 0b    	sta	$0B76
    316c:	ad 71 0b    	lda	$0B71
    316f:	8d 77 0b    	sta	$0B77
    3172:	ad 7a 0b    	lda	$0B7A
    3175:	8d 84 0b    	sta	$0B84
    3178:	ad 7b 0b    	lda	$0B7B
    317b:	8d 85 0b    	sta	$0B85
    317e:	ad 76 0b    	lda	$0B76
    3181:	8d 86 0b    	sta	$0B86
    3184:	ad 77 0b    	lda	$0B77
    3187:	8d 87 0b    	sta	$0B87
    318a:	20 9e 33    	jsr	$339E
    318d:	ad 66 0b    	lda	$0B66
    3190:	8d 74 0b    	sta	$0B74
    3193:	ad 67 0b    	lda	$0B67
    3196:	8d 75 0b    	sta	$0B75
    3199:	ad 78 0b    	lda	$0B78
    319c:	8d 84 0b    	sta	$0B84
    319f:	ad 79 0b    	lda	$0B79
    31a2:	8d 85 0b    	sta	$0B85
    31a5:	ad 72 0b    	lda	$0B72
    31a8:	8d 86 0b    	sta	$0B86
    31ab:	ad 73 0b    	lda	$0B73
    31ae:	8d 87 0b    	sta	$0B87
    31b1:	20 9e 33    	jsr	$339E
    31b4:	38          	sec	
    31b5:	ad 74 0b    	lda	$0B74
    31b8:	ed 66 0b    	sbc	$0B66
    31bb:	8d 70 0b    	sta	$0B70
    31be:	ad 75 0b    	lda	$0B75
    31c1:	ed 67 0b    	sbc	$0B67
    31c4:	8d 71 0b    	sta	$0B71
    31c7:	ad 78 0b    	lda	$0B78
    31ca:	8d 84 0b    	sta	$0B84
    31cd:	ad 79 0b    	lda	$0B79
    31d0:	8d 85 0b    	sta	$0B85
    31d3:	ad 76 0b    	lda	$0B76
    31d6:	8d 86 0b    	sta	$0B86
    31d9:	ad 77 0b    	lda	$0B77
    31dc:	8d 87 0b    	sta	$0B87
    31df:	20 9e 33    	jsr	$339E
    31e2:	ad 66 0b    	lda	$0B66
    31e5:	8d 74 0b    	sta	$0B74
    31e8:	ad 67 0b    	lda	$0B67
    31eb:	8d 75 0b    	sta	$0B75
    31ee:	ad 7a 0b    	lda	$0B7A
    31f1:	8d 84 0b    	sta	$0B84
    31f4:	ad 7b 0b    	lda	$0B7B
    31f7:	8d 85 0b    	sta	$0B85
    31fa:	ad 72 0b    	lda	$0B72
    31fd:	8d 86 0b    	sta	$0B86
    3200:	ad 73 0b    	lda	$0B73
    3203:	8d 87 0b    	sta	$0B87
    3206:	20 9e 33    	jsr	$339E
    3209:	18          	clc	
    320a:	ad 74 0b    	lda	$0B74
    320d:	6d 66 0b    	adc	$0B66
    3210:	8d 72 0b    	sta	$0B72
    3213:	ad 75 0b    	lda	$0B75
    3216:	6d 67 0b    	adc	$0B67
    3219:	8d 73 0b    	sta	$0B73
    321c:	ad 6e 0b    	lda	$0B6E
    321f:	8d 74 0b    	sta	$0B74
    3222:	ad 6f 0b    	lda	$0B6F
    3225:	8d 75 0b    	sta	$0B75
    3228:	ad 7e 0b    	lda	$0B7E
    322b:	8d 84 0b    	sta	$0B84
    322e:	ad 7f 0b    	lda	$0B7F
    3231:	8d 85 0b    	sta	$0B85
    3234:	ad 74 0b    	lda	$0B74
    3237:	8d 86 0b    	sta	$0B86
    323a:	ad 75 0b    	lda	$0B75
    323d:	8d 87 0b    	sta	$0B87
    3240:	20 9e 33    	jsr	$339E
    3243:	ad 66 0b    	lda	$0B66
    3246:	8d 76 0b    	sta	$0B76
    3249:	ad 67 0b    	lda	$0B67
    324c:	8d 77 0b    	sta	$0B77
    324f:	ad 7c 0b    	lda	$0B7C
    3252:	8d 84 0b    	sta	$0B84
    3255:	ad 7d 0b    	lda	$0B7D
    3258:	8d 85 0b    	sta	$0B85
    325b:	ad 72 0b    	lda	$0B72
    325e:	8d 86 0b    	sta	$0B86
    3261:	ad 73 0b    	lda	$0B73
    3264:	8d 87 0b    	sta	$0B87
    3267:	20 9e 33    	jsr	$339E
    326a:	18          	clc	
    326b:	ad 76 0b    	lda	$0B76
    326e:	6d 66 0b    	adc	$0B66
    3271:	8d 6e 0b    	sta	$0B6E
    3274:	ad 77 0b    	lda	$0B77
    3277:	6d 67 0b    	adc	$0B67
    327a:	8d 6f 0b    	sta	$0B6F
    327d:	ad 7c 0b    	lda	$0B7C
    3280:	8d 84 0b    	sta	$0B84
    3283:	ad 7d 0b    	lda	$0B7D
    3286:	8d 85 0b    	sta	$0B85
    3289:	ad 74 0b    	lda	$0B74
    328c:	8d 86 0b    	sta	$0B86
    328f:	ad 75 0b    	lda	$0B75
    3292:	8d 87 0b    	sta	$0B87
    3295:	20 9e 33    	jsr	$339E
    3298:	ad 66 0b    	lda	$0B66
    329b:	49 ff       	eor	#$FF
    329d:	8d 76 0b    	sta	$0B76
    32a0:	ad 67 0b    	lda	$0B67
    32a3:	49 ff       	eor	#$FF
    32a5:	8d 77 0b    	sta	$0B77
    32a8:	18          	clc	
    32a9:	ad 76 0b    	lda	$0B76
    32ac:	69 01       	adc	#$01
    32ae:	8d 76 0b    	sta	$0B76
    32b1:	ad 77 0b    	lda	$0B77
    32b4:	69 00       	adc	#$00
    32b6:	8d 77 0b    	sta	$0B77
    32b9:	ad 7e 0b    	lda	$0B7E
    32bc:	8d 84 0b    	sta	$0B84
    32bf:	ad 7f 0b    	lda	$0B7F
    32c2:	8d 85 0b    	sta	$0B85
    32c5:	ad 72 0b    	lda	$0B72
    32c8:	8d 86 0b    	sta	$0B86
    32cb:	ad 73 0b    	lda	$0B73
    32ce:	8d 87 0b    	sta	$0B87
    32d1:	20 9e 33    	jsr	$339E
    32d4:	18          	clc	
    32d5:	ad 76 0b    	lda	$0B76
    32d8:	6d 66 0b    	adc	$0B66
    32db:	8d 72 0b    	sta	$0B72
    32de:	ad 77 0b    	lda	$0B77
    32e1:	6d 67 0b    	adc	$0B67
    32e4:	8d 73 0b    	sta	$0B73
    32e7:	ad 6e 0b    	lda	$0B6E
    32ea:	8d 74 0b    	sta	$0B74
    32ed:	ad 6f 0b    	lda	$0B6F
    32f0:	8d 75 0b    	sta	$0B75
    32f3:	ad 82 0b    	lda	$0B82
    32f6:	8d 84 0b    	sta	$0B84
    32f9:	ad 83 0b    	lda	$0B83
    32fc:	8d 85 0b    	sta	$0B85
    32ff:	ad 74 0b    	lda	$0B74
    3302:	8d 86 0b    	sta	$0B86
    3305:	ad 75 0b    	lda	$0B75
    3308:	8d 87 0b    	sta	$0B87
    330b:	20 9e 33    	jsr	$339E
    330e:	ad 66 0b    	lda	$0B66
    3311:	8d 76 0b    	sta	$0B76
    3314:	ad 67 0b    	lda	$0B67
    3317:	8d 77 0b    	sta	$0B77
    331a:	ad 80 0b    	lda	$0B80
    331d:	8d 84 0b    	sta	$0B84
    3320:	ad 81 0b    	lda	$0B81
    3323:	8d 85 0b    	sta	$0B85
    3326:	ad 70 0b    	lda	$0B70
    3329:	8d 86 0b    	sta	$0B86
    332c:	ad 71 0b    	lda	$0B71
    332f:	8d 87 0b    	sta	$0B87
    3332:	20 9e 33    	jsr	$339E
    3335:	38          	sec	
    3336:	ad 76 0b    	lda	$0B76
    3339:	ed 66 0b    	sbc	$0B66
    333c:	8d 6e 0b    	sta	$0B6E
    333f:	ad 77 0b    	lda	$0B77
    3342:	ed 67 0b    	sbc	$0B67
    3345:	8d 6f 0b    	sta	$0B6F
    3348:	ad 80 0b    	lda	$0B80
    334b:	8d 84 0b    	sta	$0B84
    334e:	ad 81 0b    	lda	$0B81
    3351:	8d 85 0b    	sta	$0B85
    3354:	ad 74 0b    	lda	$0B74
    3357:	8d 86 0b    	sta	$0B86
    335a:	ad 75 0b    	lda	$0B75
    335d:	8d 87 0b    	sta	$0B87
    3360:	20 9e 33    	jsr	$339E
    3363:	ad 66 0b    	lda	$0B66
    3366:	8d 76 0b    	sta	$0B76
    3369:	ad 67 0b    	lda	$0B67
    336c:	8d 77 0b    	sta	$0B77
    336f:	ad 82 0b    	lda	$0B82
    3372:	8d 84 0b    	sta	$0B84
    3375:	ad 83 0b    	lda	$0B83
    3378:	8d 85 0b    	sta	$0B85
    337b:	ad 70 0b    	lda	$0B70
    337e:	8d 86 0b    	sta	$0B86
    3381:	ad 71 0b    	lda	$0B71
    3384:	8d 87 0b    	sta	$0B87
    3387:	20 9e 33    	jsr	$339E
    338a:	18          	clc	
    338b:	ad 76 0b    	lda	$0B76
    338e:	6d 66 0b    	adc	$0B66
    3391:	8d 70 0b    	sta	$0B70
    3394:	ad 77 0b    	lda	$0B77
    3397:	6d 67 0b    	adc	$0B67
    339a:	8d 71 0b    	sta	$0B71
    339d:	60          	rts	
    339e:	20 5f 30    	jsr	$305F
    33a1:	a2 0f       	ldx	#$0F
    33a3:	ad 6a 3d    	lda	$3D6A
    33a6:	29 80       	and	#$80
    33a8:	f0 03       	beq	$33AD
    33aa:	38          	sec	
    33ab:	b0 01       	bcs	$33AE
    33ad:	18          	clc	
    33ae:	6e 6a 3d    	ror	$3D6A
    33b1:	6e 69 3d    	ror	$3D69
    33b4:	6e 68 3d    	ror	$3D68
    33b7:	6e 8a 0b    	ror	$0B8A
    33ba:	ca          	dex	
    33bb:	d0 e6       	bne	$33A3
    33bd:	ad 8a 0b    	lda	$0B8A
    33c0:	8d 66 0b    	sta	$0B66
    33c3:	ad 68 3d    	lda	$3D68
    33c6:	8d 67 0b    	sta	$0B67
    33c9:	60          	rts	
    33ca:	18          	clc	
    33cb:	ad 6e 0b    	lda	$0B6E
    33ce:	65 00       	adc	$00
    33d0:	8d 6e 0b    	sta	$0B6E
    33d3:	ad 6f 0b    	lda	$0B6F
    33d6:	65 00       	adc	$00
    33d8:	8d 6f 0b    	sta	$0B6F
    33db:	18          	clc	
    33dc:	ad 70 0b    	lda	$0B70
    33df:	65 00       	adc	$00
    33e1:	8d 70 0b    	sta	$0B70
    33e4:	ad 71 0b    	lda	$0B71
    33e7:	65 00       	adc	$00
    33e9:	8d 71 0b    	sta	$0B71
    33ec:	18          	clc	
    33ed:	ad 72 0b    	lda	$0B72
    33f0:	65 00       	adc	$00
    33f2:	8d 72 0b    	sta	$0B72
    33f5:	ad 73 0b    	lda	$0B73
    33f8:	65 00       	adc	$00
    33fa:	8d 73 0b    	sta	$0B73
    33fd:	60          	rts	
    33fe:	a0 00       	ldy	#$00
    3400:	ad 6e 0b    	lda	$0B6E
    3403:	91 9f       	sta	($9F),y
    3405:	c8          	iny	
    3406:	ad 6f 0b    	lda	$0B6F
    3409:	91 9f       	sta	($9F),y
    340b:	c8          	iny	
    340c:	ad 70 0b    	lda	$0B70
    340f:	91 9f       	sta	($9F),y
    3411:	c8          	iny	
    3412:	ad 71 0b    	lda	$0B71
    3415:	91 9f       	sta	($9F),y
    3417:	c8          	iny	
    3418:	ad 72 0b    	lda	$0B72
    341b:	91 9f       	sta	($9F),y
    341d:	c8          	iny	
    341e:	ad 73 0b    	lda	$0B73
    3421:	91 9f       	sta	($9F),y
    3423:	18          	clc	
    3424:	ad 7c 3d    	lda	$3D7C
    3427:	69 06       	adc	#$06
    3429:	8d 7c 3d    	sta	$3D7C
    342c:	90 03       	bcc	$3431
    342e:	ee 7d 3d    	inc	$3D7D
    3431:	ee 7e 3d    	inc	$3D7E
    3434:	ad 7e 3d    	lda	$3D7E
    3437:	c9 ff       	cmp	#$FF
    3439:	d0 03       	bne	$343E
    343b:	20 3f 34    	jsr	$343F
    343e:	60          	rts	
    343f:	ad 7e 3d    	lda	$3D7E
    3442:	f0 6c       	beq	$34B0
    3444:	ad 7e 3d    	lda	$3D7E
    3447:	8d 62 0b    	sta	$0B62
    344a:	a9 00       	lda	#$00
    344c:	8d 63 0b    	sta	$0B63
    344f:	0e 62 0b    	asl	$0B62
    3452:	2e 63 0b    	rol	$0B63
    3455:	ad 62 0b    	lda	$0B62
    3458:	8d 64 0b    	sta	$0B64
    345b:	ad 63 0b    	lda	$0B63
    345e:	8d 65 0b    	sta	$0B65
    3461:	0e 62 0b    	asl	$0B62
    3464:	2e 63 0b    	rol	$0B63
    3467:	18          	clc	
    3468:	ad 62 0b    	lda	$0B62
    346b:	6d 64 0b    	adc	$0B64
    346e:	8d 62 0b    	sta	$0B62
    3471:	ad 63 0b    	lda	$0B63
    3474:	6d 65 0b    	adc	$0B65
    3477:	8d 63 0b    	sta	$0B63
    347a:	ad 62 0b    	lda	$0B62
    347d:	8d ba 34    	sta	$34BA
    3480:	ad 63 0b    	lda	$0B63
    3483:	8d bb 34    	sta	$34BB
    3486:	ad 81 3d    	lda	$3D81
    3489:	8d bf 34    	sta	$34BF
    348c:	ad 82 3d    	lda	$3D82
    348f:	8d c0 34    	sta	$34C0
    3492:	ad 80 3d    	lda	$3D80
    3495:	8d c1 34    	sta	$34C1
    3498:	ad 7f 3d    	lda	$3D7F
    349b:	8d b7 34    	sta	$34B7
    349e:	a9 b1       	lda	#$B1
    34a0:	8d bc 34    	sta	$34BC
    34a3:	a9 0d       	lda	#$0D
    34a5:	8d bd 34    	sta	$34BD
    34a8:	a9 00       	lda	#$00
    34aa:	8d be 34    	sta	$34BE
    34ad:	4c b1 34    	jmp	$34B1
    34b0:	60          	rts	
    34b1:	a9 00       	lda	#$00
    34b3:	8d 07 d7    	sta	$D707
    34b6:	81 00       	sta	($00,x)
    34b8:	00          	brk	
    34b9:	00          	brk	
    34ba:	00          	brk	
    34bb:	00          	brk	
    34bc:	00          	brk	
    34bd:	00          	brk	
    34be:	00          	brk	
    34bf:	00          	brk	
    34c0:	00          	brk	
    34c1:	00          	brk	
    34c2:	00          	brk	
    34c3:	00          	brk	
    34c4:	18          	clc	
    34c5:	ad 81 3d    	lda	$3D81
    34c8:	6d 62 0b    	adc	$0B62
    34cb:	8d 81 3d    	sta	$3D81
    34ce:	ad 82 3d    	lda	$3D82
    34d1:	6d 63 0b    	adc	$0B63
    34d4:	8d 82 3d    	sta	$3D82
    34d7:	ad 80 3d    	lda	$3D80
    34da:	69 00       	adc	#$00
    34dc:	8d 80 3d    	sta	$3D80
    34df:	c9 10       	cmp	#$10
    34e1:	d0 08       	bne	$34EB
    34e3:	a9 00       	lda	#$00
    34e5:	8d 80 3d    	sta	$3D80
    34e8:	ee 7f 3d    	inc	$3D7F
    34eb:	a9 b1       	lda	#$B1
    34ed:	8d 7c 3d    	sta	$3D7C
    34f0:	a9 0d       	lda	#$0D
    34f2:	8d 7d 3d    	sta	$3D7D
    34f5:	a9 00       	lda	#$00
    34f7:	8d 7e 3d    	sta	$3D7E
    34fa:	60          	rts	
    34fb:	ad 72 0b    	lda	$0B72
    34fe:	8d 73 3d    	sta	$3D73
    3501:	ad 73 0b    	lda	$0B73
    3504:	8d 74 3d    	sta	$3D74
    3507:	ad 73 0b    	lda	$0B73
    350a:	29 80       	and	#$80
    350c:	f0 04       	beq	$3512
    350e:	a9 ff       	lda	#$FF
    3510:	d0 02       	bne	$3514
    3512:	a9 00       	lda	#$00
    3514:	8d 75 3d    	sta	$3D75
    3517:	18          	clc	
    3518:	ad 73 3d    	lda	$3D73
    351b:	65 00       	adc	$00
    351d:	8d 73 3d    	sta	$3D73
    3520:	ad 74 3d    	lda	$3D74
    3523:	65 00       	adc	$00
    3525:	8d 74 3d    	sta	$3D74
    3528:	ad 75 3d    	lda	$3D75
    352b:	65 00       	adc	$00
    352d:	8d 75 3d    	sta	$3D75
    3530:	ad 75 3d    	lda	$3D75
    3533:	30 0c       	bmi	$3541
    3535:	d0 17       	bne	$354E
    3537:	ad 74 3d    	lda	$3D74
    353a:	d0 12       	bne	$354E
    353c:	ad 73 3d    	lda	$3D73
    353f:	d0 0d       	bne	$354E
    3541:	a9 01       	lda	#$01
    3543:	8d 73 3d    	sta	$3D73
    3546:	a9 00       	lda	#$00
    3548:	8d 74 3d    	sta	$3D74
    354b:	8d 75 3d    	sta	$3D75
    354e:	ad 6e 0b    	lda	$0B6E
    3551:	8d 84 0b    	sta	$0B84
    3554:	ad 6f 0b    	lda	$0B6F
    3557:	8d 85 0b    	sta	$0B85
    355a:	a5 00       	lda	$00
    355c:	8d 86 0b    	sta	$0B86
    355f:	a5 00       	lda	$00
    3561:	8d 87 0b    	sta	$0B87
    3564:	a5 00       	lda	$00
    3566:	8d 88 0b    	sta	$0B88
    3569:	20 cc 36    	jsr	$36CC
    356c:	a9 00       	lda	#$00
    356e:	8d 89 0b    	sta	$0B89
    3571:	ad 72 3d    	lda	$3D72
    3574:	30 03       	bmi	$3579
    3576:	4c 81 35    	jmp	$3581
    3579:	a9 01       	lda	#$01
    357b:	8d 89 0b    	sta	$0B89
    357e:	20 7d 37    	jsr	$377D
    3581:	20 cf 37    	jsr	$37CF
    3584:	ad 89 0b    	lda	$0B89
    3587:	f0 21       	beq	$35AA
    3589:	ad 76 3d    	lda	$3D76
    358c:	49 ff       	eor	#$FF
    358e:	8d 76 3d    	sta	$3D76
    3591:	ad 77 3d    	lda	$3D77
    3594:	49 ff       	eor	#$FF
    3596:	8d 77 3d    	sta	$3D77
    3599:	18          	clc	
    359a:	ad 76 3d    	lda	$3D76
    359d:	69 01       	adc	#$01
    359f:	8d 76 3d    	sta	$3D76
    35a2:	ad 77 3d    	lda	$3D77
    35a5:	69 00       	adc	#$00
    35a7:	8d 77 3d    	sta	$3D77
    35aa:	18          	clc	
    35ab:	ad 76 3d    	lda	$3D76
    35ae:	69 80       	adc	#$80
    35b0:	8d 76 3d    	sta	$3D76
    35b3:	ad 77 3d    	lda	$3D77
    35b6:	69 00       	adc	#$00
    35b8:	8d 77 3d    	sta	$3D77
    35bb:	ad 77 3d    	lda	$3D77
    35be:	8d 66 0b    	sta	$0B66
    35c1:	ad 77 3d    	lda	$3D77
    35c4:	29 80       	and	#$80
    35c6:	f0 08       	beq	$35D0
    35c8:	a9 ff       	lda	#$FF
    35ca:	8d 67 0b    	sta	$0B67
    35cd:	4c d5 35    	jmp	$35D5
    35d0:	a9 00       	lda	#$00
    35d2:	8d 67 0b    	sta	$0B67
    35d5:	18          	clc	
    35d6:	a5 00       	lda	$00
    35d8:	6d 66 0b    	adc	$0B66
    35db:	8d 78 3d    	sta	$3D78
    35de:	a5 01       	lda	$01
    35e0:	6d 67 0b    	adc	$0B67
    35e3:	8d 79 3d    	sta	$3D79
    35e6:	ad 70 0b    	lda	$0B70
    35e9:	8d 84 0b    	sta	$0B84
    35ec:	ad 71 0b    	lda	$0B71
    35ef:	8d 85 0b    	sta	$0B85
    35f2:	a5 00       	lda	$00
    35f4:	8d 86 0b    	sta	$0B86
    35f7:	a5 00       	lda	$00
    35f9:	8d 87 0b    	sta	$0B87
    35fc:	a5 00       	lda	$00
    35fe:	8d 88 0b    	sta	$0B88
    3601:	20 cc 36    	jsr	$36CC
    3604:	a9 00       	lda	#$00
    3606:	8d 89 0b    	sta	$0B89
    3609:	ad 72 3d    	lda	$3D72
    360c:	30 03       	bmi	$3611
    360e:	4c 19 36    	jmp	$3619
    3611:	a9 01       	lda	#$01
    3613:	8d 89 0b    	sta	$0B89
    3616:	20 7d 37    	jsr	$377D
    3619:	20 cf 37    	jsr	$37CF
    361c:	ad 89 0b    	lda	$0B89
    361f:	f0 21       	beq	$3642
    3621:	ad 76 3d    	lda	$3D76
    3624:	49 ff       	eor	#$FF
    3626:	8d 76 3d    	sta	$3D76
    3629:	ad 77 3d    	lda	$3D77
    362c:	49 ff       	eor	#$FF
    362e:	8d 77 3d    	sta	$3D77
    3631:	18          	clc	
    3632:	ad 76 3d    	lda	$3D76
    3635:	69 01       	adc	#$01
    3637:	8d 76 3d    	sta	$3D76
    363a:	ad 77 3d    	lda	$3D77
    363d:	69 00       	adc	#$00
    363f:	8d 77 3d    	sta	$3D77
    3642:	18          	clc	
    3643:	ad 76 3d    	lda	$3D76
    3646:	69 80       	adc	#$80
    3648:	8d 76 3d    	sta	$3D76
    364b:	ad 77 3d    	lda	$3D77
    364e:	69 00       	adc	#$00
    3650:	8d 77 3d    	sta	$3D77
    3653:	ad 77 3d    	lda	$3D77
    3656:	8d 66 0b    	sta	$0B66
    3659:	ad 77 3d    	lda	$3D77
    365c:	29 80       	and	#$80
    365e:	f0 08       	beq	$3668
    3660:	a9 ff       	lda	#$FF
    3662:	8d 67 0b    	sta	$0B67
    3665:	4c 6d 36    	jmp	$366D
    3668:	a9 00       	lda	#$00
    366a:	8d 67 0b    	sta	$0B67
    366d:	38          	sec	
    366e:	a5 00       	lda	$00
    3670:	ed 66 0b    	sbc	$0B66
    3673:	8d 7a 3d    	sta	$3D7A
    3676:	a5 01       	lda	$01
    3678:	ed 67 0b    	sbc	$0B67
    367b:	8d 7b 3d    	sta	$3D7B
    367e:	ad 79 3d    	lda	$3D79
    3681:	30 1a       	bmi	$369D
    3683:	c9 01       	cmp	#$01
    3685:	90 1e       	bcc	$36A5
    3687:	d0 07       	bne	$3690
    3689:	ad 78 3d    	lda	$3D78
    368c:	c9 40       	cmp	#$40
    368e:	90 15       	bcc	$36A5
    3690:	a9 3f       	lda	#$3F
    3692:	8d 78 3d    	sta	$3D78
    3695:	a9 01       	lda	#$01
    3697:	8d 79 3d    	sta	$3D79
    369a:	4c a5 36    	jmp	$36A5
    369d:	a9 00       	lda	#$00
    369f:	8d 78 3d    	sta	$3D78
    36a2:	8d 79 3d    	sta	$3D79
    36a5:	ad 7b 3d    	lda	$3D7B
    36a8:	30 19       	bmi	$36C3
    36aa:	f0 03       	beq	$36AF
    36ac:	4c b6 36    	jmp	$36B6
    36af:	ad 7a 3d    	lda	$3D7A
    36b2:	c9 c8       	cmp	#$C8
    36b4:	90 15       	bcc	$36CB
    36b6:	a9 c7       	lda	#$C7
    36b8:	8d 7a 3d    	sta	$3D7A
    36bb:	a9 00       	lda	#$00
    36bd:	8d 7b 3d    	sta	$3D7B
    36c0:	4c cb 36    	jmp	$36CB
    36c3:	a9 00       	lda	#$00
    36c5:	8d 7a 3d    	sta	$3D7A
    36c8:	8d 7b 3d    	sta	$3D7B
    36cb:	60          	rts	
    36cc:	ad 85 0b    	lda	$0B85
    36cf:	29 80       	and	#$80
    36d1:	8d 89 0b    	sta	$0B89
    36d4:	ad 89 0b    	lda	$0B89
    36d7:	f0 21       	beq	$36FA
    36d9:	ad 84 0b    	lda	$0B84
    36dc:	49 ff       	eor	#$FF
    36de:	8d 84 0b    	sta	$0B84
    36e1:	ad 85 0b    	lda	$0B85
    36e4:	49 ff       	eor	#$FF
    36e6:	8d 85 0b    	sta	$0B85
    36e9:	18          	clc	
    36ea:	ad 84 0b    	lda	$0B84
    36ed:	69 01       	adc	#$01
    36ef:	8d 84 0b    	sta	$0B84
    36f2:	ad 85 0b    	lda	$0B85
    36f5:	69 00       	adc	#$00
    36f7:	8d 85 0b    	sta	$0B85
    36fa:	a9 00       	lda	#$00
    36fc:	8d 6e 3d    	sta	$3D6E
    36ff:	8d 6f 3d    	sta	$3D6F
    3702:	8d 70 3d    	sta	$3D70
    3705:	8d 71 3d    	sta	$3D71
    3708:	8d 72 3d    	sta	$3D72
    370b:	ad 84 0b    	lda	$0B84
    370e:	8d 66 0b    	sta	$0B66
    3711:	ad 85 0b    	lda	$0B85
    3714:	8d 67 0b    	sta	$0B67
    3717:	a9 00       	lda	#$00
    3719:	8d 6b 3d    	sta	$3D6B
    371c:	8d 6c 3d    	sta	$3D6C
    371f:	8d 6d 3d    	sta	$3D6D
    3722:	a2 18       	ldx	#$18
    3724:	ad 86 0b    	lda	$0B86
    3727:	29 01       	and	#$01
    3729:	f0 2e       	beq	$3759
    372b:	18          	clc	
    372c:	ad 6e 3d    	lda	$3D6E
    372f:	6d 66 0b    	adc	$0B66
    3732:	8d 6e 3d    	sta	$3D6E
    3735:	ad 6f 3d    	lda	$3D6F
    3738:	6d 67 0b    	adc	$0B67
    373b:	8d 6f 3d    	sta	$3D6F
    373e:	ad 70 3d    	lda	$3D70
    3741:	6d 6b 3d    	adc	$3D6B
    3744:	8d 70 3d    	sta	$3D70
    3747:	ad 71 3d    	lda	$3D71
    374a:	6d 6c 3d    	adc	$3D6C
    374d:	8d 71 3d    	sta	$3D71
    3750:	ad 72 3d    	lda	$3D72
    3753:	6d 6d 3d    	adc	$3D6D
    3756:	8d 72 3d    	sta	$3D72
    3759:	0e 66 0b    	asl	$0B66
    375c:	2e 67 0b    	rol	$0B67
    375f:	2e 6b 3d    	rol	$3D6B
    3762:	2e 6c 3d    	rol	$3D6C
    3765:	2e 6d 3d    	rol	$3D6D
    3768:	4e 88 0b    	lsr	$0B88
    376b:	6e 87 0b    	ror	$0B87
    376e:	6e 86 0b    	ror	$0B86
    3771:	ca          	dex	
    3772:	d0 b0       	bne	$3724
    3774:	ad 89 0b    	lda	$0B89
    3777:	f0 03       	beq	$377C
    3779:	20 7d 37    	jsr	$377D
    377c:	60          	rts	
    377d:	ad 6e 3d    	lda	$3D6E
    3780:	49 ff       	eor	#$FF
    3782:	8d 6e 3d    	sta	$3D6E
    3785:	ad 6f 3d    	lda	$3D6F
    3788:	49 ff       	eor	#$FF
    378a:	8d 6f 3d    	sta	$3D6F
    378d:	ad 70 3d    	lda	$3D70
    3790:	49 ff       	eor	#$FF
    3792:	8d 70 3d    	sta	$3D70
    3795:	ad 71 3d    	lda	$3D71
    3798:	49 ff       	eor	#$FF
    379a:	8d 71 3d    	sta	$3D71
    379d:	ad 72 3d    	lda	$3D72
    37a0:	49 ff       	eor	#$FF
    37a2:	8d 72 3d    	sta	$3D72
    37a5:	18          	clc	
    37a6:	ad 6e 3d    	lda	$3D6E
    37a9:	69 01       	adc	#$01
    37ab:	8d 6e 3d    	sta	$3D6E
    37ae:	ad 6f 3d    	lda	$3D6F
    37b1:	69 00       	adc	#$00
    37b3:	8d 6f 3d    	sta	$3D6F
    37b6:	ad 70 3d    	lda	$3D70
    37b9:	69 00       	adc	#$00
    37bb:	8d 70 3d    	sta	$3D70
    37be:	ad 71 3d    	lda	$3D71
    37c1:	69 00       	adc	#$00
    37c3:	8d 71 3d    	sta	$3D71
    37c6:	ad 72 3d    	lda	$3D72
    37c9:	69 00       	adc	#$00
    37cb:	8d 72 3d    	sta	$3D72
    37ce:	60          	rts	
    37cf:	a9 00       	lda	#$00
    37d1:	8d 76 3d    	sta	$3D76
    37d4:	8d 77 3d    	sta	$3D77
    37d7:	a9 00       	lda	#$00
    37d9:	8d 6b 3d    	sta	$3D6B
    37dc:	8d 6c 3d    	sta	$3D6C
    37df:	8d 6d 3d    	sta	$3D6D
    37e2:	a2 18       	ldx	#$18
    37e4:	0e 6e 3d    	asl	$3D6E
    37e7:	2e 6f 3d    	rol	$3D6F
    37ea:	2e 70 3d    	rol	$3D70
    37ed:	2e 71 3d    	rol	$3D71
    37f0:	2e 72 3d    	rol	$3D72
    37f3:	2e 6b 3d    	rol	$3D6B
    37f6:	2e 6c 3d    	rol	$3D6C
    37f9:	2e 6d 3d    	rol	$3D6D
    37fc:	ad 6d 3d    	lda	$3D6D
    37ff:	cd 75 3d    	cmp	$3D75
    3802:	90 30       	bcc	$3834
    3804:	d0 12       	bne	$3818
    3806:	ad 6c 3d    	lda	$3D6C
    3809:	cd 74 3d    	cmp	$3D74
    380c:	90 26       	bcc	$3834
    380e:	d0 08       	bne	$3818
    3810:	ad 6b 3d    	lda	$3D6B
    3813:	cd 73 3d    	cmp	$3D73
    3816:	90 1c       	bcc	$3834
    3818:	38          	sec	
    3819:	ad 6b 3d    	lda	$3D6B
    381c:	ed 73 3d    	sbc	$3D73
    381f:	8d 6b 3d    	sta	$3D6B
    3822:	ad 6c 3d    	lda	$3D6C
    3825:	ed 74 3d    	sbc	$3D74
    3828:	8d 6c 3d    	sta	$3D6C
    382b:	ad 6d 3d    	lda	$3D6D
    382e:	ed 75 3d    	sbc	$3D75
    3831:	8d 6d 3d    	sta	$3D6D
    3834:	ca          	dex	
    3835:	d0 ad       	bne	$37E4
    3837:	a2 10       	ldx	#$10
    3839:	0e 6e 3d    	asl	$3D6E
    383c:	2e 6f 3d    	rol	$3D6F
    383f:	2e 70 3d    	rol	$3D70
    3842:	2e 71 3d    	rol	$3D71
    3845:	2e 72 3d    	rol	$3D72
    3848:	2e 6b 3d    	rol	$3D6B
    384b:	2e 6c 3d    	rol	$3D6C
    384e:	2e 6d 3d    	rol	$3D6D
    3851:	0e 76 3d    	asl	$3D76
    3854:	2e 77 3d    	rol	$3D77
    3857:	ad 6d 3d    	lda	$3D6D
    385a:	cd 75 3d    	cmp	$3D75
    385d:	90 38       	bcc	$3897
    385f:	d0 12       	bne	$3873
    3861:	ad 6c 3d    	lda	$3D6C
    3864:	cd 74 3d    	cmp	$3D74
    3867:	90 2e       	bcc	$3897
    3869:	d0 08       	bne	$3873
    386b:	ad 6b 3d    	lda	$3D6B
    386e:	cd 73 3d    	cmp	$3D73
    3871:	90 24       	bcc	$3897
    3873:	38          	sec	
    3874:	ad 6b 3d    	lda	$3D6B
    3877:	ed 73 3d    	sbc	$3D73
    387a:	8d 6b 3d    	sta	$3D6B
    387d:	ad 6c 3d    	lda	$3D6C
    3880:	ed 74 3d    	sbc	$3D74
    3883:	8d 6c 3d    	sta	$3D6C
    3886:	ad 6d 3d    	lda	$3D6D
    3889:	ed 75 3d    	sbc	$3D75
    388c:	8d 6d 3d    	sta	$3D6D
    388f:	ad 76 3d    	lda	$3D76
    3892:	09 01       	ora	#$01
    3894:	8d 76 3d    	sta	$3D76
    3897:	ca          	dex	
    3898:	d0 9f       	bne	$3839
    389a:	60          	rts	
    389b:	a0 00       	ldy	#$00
    389d:	ad 78 3d    	lda	$3D78
    38a0:	91 a6       	sta	($A6),y
    38a2:	c8          	iny	
    38a3:	ad 79 3d    	lda	$3D79
    38a6:	91 a6       	sta	($A6),y
    38a8:	c8          	iny	
    38a9:	ad 7a 3d    	lda	$3D7A
    38ac:	91 a6       	sta	($A6),y
    38ae:	c8          	iny	
    38af:	ad 7b 3d    	lda	$3D7B
    38b2:	91 a6       	sta	($A6),y
    38b4:	18          	clc	
    38b5:	ad 83 3d    	lda	$3D83
    38b8:	69 04       	adc	#$04
    38ba:	8d 83 3d    	sta	$3D83
    38bd:	90 03       	bcc	$38C2
    38bf:	ee 84 3d    	inc	$3D84
    38c2:	ee 85 3d    	inc	$3D85
    38c5:	ad 85 3d    	lda	$3D85
    38c8:	c9 ff       	cmp	#$FF
    38ca:	d0 03       	bne	$38CF
    38cc:	20 d0 38    	jsr	$38D0
    38cf:	60          	rts	
    38d0:	ad 85 3d    	lda	$3D85
    38d3:	f0 4d       	beq	$3922
    38d5:	ad 85 3d    	lda	$3D85
    38d8:	8d 62 0b    	sta	$0B62
    38db:	a9 00       	lda	#$00
    38dd:	8d 63 0b    	sta	$0B63
    38e0:	0e 62 0b    	asl	$0B62
    38e3:	2e 63 0b    	rol	$0B63
    38e6:	0e 62 0b    	asl	$0B62
    38e9:	2e 63 0b    	rol	$0B63
    38ec:	ad 62 0b    	lda	$0B62
    38ef:	8d 2c 39    	sta	$392C
    38f2:	ad 63 0b    	lda	$0B63
    38f5:	8d 2d 39    	sta	$392D
    38f8:	ad 88 3d    	lda	$3D88
    38fb:	8d 31 39    	sta	$3931
    38fe:	ad 89 3d    	lda	$3D89
    3901:	8d 32 39    	sta	$3932
    3904:	ad 87 3d    	lda	$3D87
    3907:	8d 33 39    	sta	$3933
    390a:	ad 86 3d    	lda	$3D86
    390d:	8d 29 39    	sta	$3929
    3910:	a9 19       	lda	#$19
    3912:	8d 2e 39    	sta	$392E
    3915:	a9 54       	lda	#$54
    3917:	8d 2f 39    	sta	$392F
    391a:	a9 00       	lda	#$00
    391c:	8d 30 39    	sta	$3930
    391f:	4c 23 39    	jmp	$3923
    3922:	60          	rts	
    3923:	a9 00       	lda	#$00
    3925:	8d 07 d7    	sta	$D707
    3928:	81 00       	sta	($00,x)
    392a:	00          	brk	
    392b:	00          	brk	
    392c:	00          	brk	
    392d:	00          	brk	
    392e:	00          	brk	
    392f:	00          	brk	
    3930:	00          	brk	
    3931:	00          	brk	
    3932:	00          	brk	
    3933:	00          	brk	
    3934:	00          	brk	
    3935:	00          	brk	
    3936:	18          	clc	
    3937:	ad 88 3d    	lda	$3D88
    393a:	6d 62 0b    	adc	$0B62
    393d:	8d 88 3d    	sta	$3D88
    3940:	ad 89 3d    	lda	$3D89
    3943:	6d 63 0b    	adc	$0B63
    3946:	8d 89 3d    	sta	$3D89
    3949:	ad 87 3d    	lda	$3D87
    394c:	69 00       	adc	#$00
    394e:	8d 87 3d    	sta	$3D87
    3951:	c9 10       	cmp	#$10
    3953:	d0 08       	bne	$395D
    3955:	a9 00       	lda	#$00
    3957:	8d 87 3d    	sta	$3D87
    395a:	ee 86 3d    	inc	$3D86
    395d:	a9 19       	lda	#$19
    395f:	8d 83 3d    	sta	$3D83
    3962:	a9 54       	lda	#$54
    3964:	8d 84 3d    	sta	$3D84
    3967:	a9 00       	lda	#$00
    3969:	8d 85 3d    	sta	$3D85
    396c:	60          	rts	
    396d:	00          	brk	
    396e:	00          	brk	
    396f:	00          	brk	
    3970:	0e 0e 0e    	asl	$0E0E
    3973:	0e 0f 0f    	asl	$0F0F
    3976:	0f 0f 10    	bbr0	$0F,$3989
    3979:	10 10       	bpl	$398B
    397b:	10 11       	bpl	$398E
    397d:	11 11       	ora	($11),y
    397f:	11 12       	ora	($12),y
    3981:	12 12       	ora	($12),z
    3983:	12 13       	ora	($13),z
    3985:	13 13 13    	bpl	$4C9B
    3988:	14 14       	trb	$14
    398a:	14 14       	trb	$14
    398c:	15 15       	ora	$15,x
    398e:	15 16       	ora	$16,x
    3990:	16 16       	asl	$16,x
    3992:	16 17       	asl	$17,x
    3994:	17 17       	rmb1	$17
    3996:	17 18       	rmb1	$18
    3998:	18          	clc	
    3999:	18          	clc	
    399a:	18          	clc	
    399b:	19 19 19    	ora	$1919,y
    399e:	19 1a 1a    	ora	$1A1A,y
    39a1:	1a          	inc	a
    39a2:	1a          	inc	a
    39a3:	1b          	inz	
    39a4:	1b          	inz	
    39a5:	1b          	inz	
    39a6:	1b          	inz	
    39a7:	1c 1c 1c    	trb	$1C1C
    39aa:	1c 1d 1d    	trb	$1D1D
    39ad:	1d 1d 1e    	ora	$1E1D,x
    39b0:	1e 1e 1e    	asl	$1E1E,x
    39b3:	1f 1f 1f    	bbr1	$1F,$39D5
    39b6:	1f 20 20    	bbr1	$20,$39D9
    39b9:	20 21 21    	jsr	$2121
    39bc:	21 21       	and	($21,x)
    39be:	22 22 22    	jsr	($2222)
    39c1:	22 23 23    	jsr	($2323)
    39c4:	23 23 24    	jsr	($2423,x)
    39c7:	24 24       	bit	$24
    39c9:	24 25       	bit	$25
    39cb:	25 25       	and	$25
    39cd:	25 26       	and	$26
    39cf:	26 26       	rol	$26
    39d1:	26 27       	rol	$27
    39d3:	27 27       	rmb2	$27
    39d5:	27 28       	rmb2	$28
    39d7:	28          	plp	
    39d8:	28          	plp	
    39d9:	28          	plp	
    39da:	29 29       	and	#$29
    39dc:	29 29       	and	#$29
    39de:	2a          	rol	a
    39df:	2a          	rol	a
    39e0:	2a          	rol	a
    39e1:	2a          	rol	a
    39e2:	2b          	tys	
    39e3:	2b          	tys	
    39e4:	2b          	tys	
    39e5:	2c 2c 2c    	bit	$2C2C
    39e8:	2c 2d 2d    	bit	$2D2D
    39eb:	2d 2d 2e    	and	$2E2D
    39ee:	2e 2e 2e    	rol	$2E2E
    39f1:	2f 2f 2f    	bbr2	$2F,$3A23
    39f4:	2f 30 30    	bbr2	$30,$3A27
    39f7:	30 30       	bmi	$3A29
    39f9:	31 31       	and	($31),y
    39fb:	31 31       	and	($31),y
    39fd:	32 32       	and	($32),z
    39ff:	32 32       	and	($32),z
    3a01:	33 33 33    	bmi	$6D37
    3a04:	33 34 34    	bmi	$6E3B
    3a07:	34 34       	bit	$34,x
    3a09:	35 35       	and	$35,x
    3a0b:	35 36       	and	$36,x
    3a0d:	36 36       	rol	$36,x
    3a0f:	36 37       	rol	$37,x
    3a11:	37 37       	rmb3	$37
    3a13:	37 38       	rmb3	$38
    3a15:	38          	sec	
    3a16:	38          	sec	
    3a17:	38          	sec	
    3a18:	39 39 39    	and	$3939,y
    3a1b:	39 3a 3a    	and	$3A3A,y
    3a1e:	3a          	dec	a
    3a1f:	3a          	dec	a
    3a20:	3b          	dez	
    3a21:	3b          	dez	
    3a22:	3b          	dez	
    3a23:	3b          	dez	
    3a24:	3c 3c 3c    	bit	$3C3C,x
    3a27:	3c 3d 3d    	bit	$3D3D,x
    3a2a:	3d 3d 3e    	and	$3E3D,x
    3a2d:	3e 3e 3e    	rol	$3E3E,x
    3a30:	3f 3f 3f    	bbr3	$3F,$3A72
    3a33:	3f 40 40    	bbr3	$40,$3A76
    3a36:	40          	rti	
    3a37:	41 41       	eor	($41,x)
    3a39:	41 41       	eor	($41,x)
    3a3b:	42          	neg	a
    3a3c:	42          	neg	a
    3a3d:	42          	neg	a
    3a3e:	42          	neg	a
    3a3f:	43          	asr	a
    3a40:	43          	asr	a
    3a41:	43          	asr	a
    3a42:	43          	asr	a
    3a43:	44 44       	asr	$44
    3a45:	44 44       	asr	$44
    3a47:	45 45       	eor	$45
    3a49:	45 45       	eor	$45
    3a4b:	46 46       	lsr	$46
    3a4d:	46 46       	lsr	$46
    3a4f:	47 47       	rmb4	$47
    3a51:	47 47       	rmb4	$47
    3a53:	48          	pha	
    3a54:	48          	pha	
    3a55:	48          	pha	
    3a56:	48          	pha	
    3a57:	49 49       	eor	#$49
    3a59:	49 49       	eor	#$49
    3a5b:	4a          	lsr	a
    3a5c:	4a          	lsr	a
    3a5d:	4a          	lsr	a
    3a5e:	4a          	lsr	a
    3a5f:	4b          	taz	
    3a60:	4b          	taz	
    3a61:	4b          	taz	
    3a62:	4c 4c 4c    	jmp	$4C4C
    3a65:	4c 4d 4d    	jmp	$4D4D
    3a68:	4d 4d 4e    	eor	$4E4D
    3a6b:	4e 4e 4e    	lsr	$4E4E
    3a6e:	4f 4f 4f    	bbr4	$4F,$3AC0
    3a71:	4f 50 50    	bbr4	$50,$3AC4
    3a74:	50 50       	bvc	$3AC6
    3a76:	51 51       	eor	($51),y
    3a78:	51 51       	eor	($51),y
    3a7a:	52 52       	eor	($52),z
    3a7c:	52 52       	eor	($52),z
    3a7e:	53 53 53    	bvc	$8DD4
    3a81:	53 54 54    	bvc	$8ED8
    3a84:	54 54       	asr	$54,x
    3a86:	55 55       	eor	$55,x
    3a88:	55 56       	eor	$56,x
    3a8a:	56 56       	lsr	$56,x
    3a8c:	56 57       	lsr	$57,x
    3a8e:	57 57       	rmb5	$57
    3a90:	57 58       	rmb5	$58
    3a92:	58          	cli	
    3a93:	58          	cli	
    3a94:	58          	cli	
    3a95:	59 59 59    	eor	$5959,y
    3a98:	59 5a 5a    	eor	$5A5A,y
    3a9b:	5a          	phy	
    3a9c:	5a          	phy	
    3a9d:	5b          	tab	
    3a9e:	5b          	tab	
    3a9f:	5b          	tab	
    3aa0:	5b          	tab	
    3aa1:	5c          	map	
    3aa2:	5c          	map	
    3aa3:	5c          	map	
    3aa4:	5c          	map	
    3aa5:	5d 5d 5d    	eor	$5D5D,x
    3aa8:	5d 5e 5e    	eor	$5E5E,x
    3aab:	5e 5e 5f    	lsr	$5F5E,x
    3aae:	5f 5f 5f    	bbr5	$5F,$3B10
    3ab1:	60          	rts	
    3ab2:	60          	rts	
    3ab3:	60          	rts	
    3ab4:	61 61       	adc	($61,x)
    3ab6:	61 61       	adc	($61,x)
    3ab8:	62 62       	rts	#$62
    3aba:	62 62       	rts	#$62
    3abc:	63 63 63    	bsr	$9E22
    3abf:	63 64 64    	bsr	$9F26
    3ac2:	64 64       	stz	$64
    3ac4:	65 65       	adc	$65
    3ac6:	65 65       	adc	$65
    3ac8:	66 66       	ror	$66
    3aca:	66 66       	ror	$66
    3acc:	67 67       	rmb6	$67
    3ace:	67 67       	rmb6	$67
    3ad0:	68          	pla	
    3ad1:	68          	pla	
    3ad2:	68          	pla	
    3ad3:	68          	pla	
    3ad4:	69 69       	adc	#$69
    3ad6:	69 69       	adc	#$69
    3ad8:	6a          	ror	a
    3ad9:	6a          	ror	a
    3ada:	6a          	ror	a
    3adb:	6a          	ror	a
    3adc:	6b          	tza	
    3add:	6b          	tza	
    3ade:	6b          	tza	
    3adf:	6c 6c 6c    	jmp	($6C6C)
    3ae2:	6c 6d 6d    	jmp	($6D6D)
    3ae5:	6d 6d 6e    	adc	$6E6D
    3ae8:	6e 6e 6e    	ror	$6E6E
    3aeb:	6f 6f 6f    	bbr6	$6F,$3B5D
    3aee:	6f 70 70    	bbr6	$70,$3B61
    3af1:	70 70       	bvs	$3B63
    3af3:	71 71       	adc	($71),y
    3af5:	71 71       	adc	($71),y
    3af7:	72 72       	adc	($72),z
    3af9:	72 72       	adc	($72),z
    3afb:	73 73 73    	bvs	$AE71
    3afe:	73 74 74    	bvs	$AF75
    3b01:	74 74       	stz	$74,x
    3b03:	75 75       	adc	$75,x
    3b05:	75 76       	adc	$76,x
    3b07:	76 76       	ror	$76,x
    3b09:	76 77       	ror	$77,x
    3b0b:	77 77       	rmb7	$77
    3b0d:	77 78       	rmb7	$78
    3b0f:	78          	sei	
    3b10:	78          	sei	
    3b11:	78          	sei	
    3b12:	79 79 79    	adc	$7979,y
    3b15:	79 7a 7a    	adc	$7A7A,y
    3b18:	7a          	ply	
    3b19:	7a          	ply	
    3b1a:	7b          	tba	
    3b1b:	7b          	tba	
    3b1c:	7b          	tba	
    3b1d:	7b          	tba	
    3b1e:	7c 7c 7c    	jmp	($7C7C,x)
    3b21:	7c 7d 7d    	jmp	($7D7D,x)
    3b24:	7d 7d 7e    	adc	$7E7D,x
    3b27:	7e 7e 7e    	ror	$7E7E,x
    3b2a:	7f 7f 7f    	bbr7	$7F,$3BAC
    3b2d:	7f 80 80    	bbr7	$80,$3AB0
    3b30:	80 81       	bra	$3AB3
    3b32:	81 81       	sta	($81,x)
    3b34:	81 82       	sta	($82,x)
    3b36:	82 82       	sta	($82,sp),y
    3b38:	82 83       	sta	($83,sp),y
    3b3a:	83 83 83    	bra	$BEC0
    3b3d:	84 84       	sty	$84
    3b3f:	84 84       	sty	$84
    3b41:	85 85       	sta	$85
    3b43:	85 85       	sta	$85
    3b45:	86 86       	stx	$86
    3b47:	86 86       	stx	$86
    3b49:	87 87       	smb0	$87
    3b4b:	87 87       	smb0	$87
    3b4d:	88          	dey	
    3b4e:	88          	dey	
    3b4f:	88          	dey	
    3b50:	88          	dey	
    3b51:	89 89       	bit	#$89
    3b53:	89 89       	bit	#$89
    3b55:	8a          	txa	
    3b56:	8a          	txa	
    3b57:	8a          	txa	
    3b58:	8a          	txa	
    3b59:	8b 8b 8b    	sty	$8B8B,x
    3b5c:	8c 8c 8c    	sty	$8C8C
    3b5f:	8c 8d 8d    	sty	$8D8D
    3b62:	8d 8d 8e    	sta	$8E8D
    3b65:	8e 8e 8e    	stx	$8E8E
    3b68:	8f 8f 8f    	bbs0	$8F,$3AFA
    3b6b:	8f 90 90    	bbs0	$90,$3AFE
    3b6e:	90 90       	bcc	$3B00
    3b70:	91 91       	sta	($91),y
    3b72:	91 91       	sta	($91),y
    3b74:	92 92       	sta	($92),z
    3b76:	92 92       	sta	($92),z
    3b78:	93 93 93    	bcc	$CF0E
    3b7b:	93 94 94    	bcc	$D012
    3b7e:	94 94       	sty	$94,x
    3b80:	95 95       	sta	$95,x
    3b82:	95 96       	sta	$96,x
    3b84:	96 96       	stx	$96,y
    3b86:	96 97       	stx	$97,y
    3b88:	97 97       	smb1	$97
    3b8a:	97 98       	smb1	$98
    3b8c:	98          	tya	
    3b8d:	98          	tya	
    3b8e:	98          	tya	
    3b8f:	99 99 99    	sta	$9999,y
    3b92:	99 9a 9a    	sta	$9A9A,y
    3b95:	9a          	txs	
    3b96:	9a          	txs	
    3b97:	9b 9b 9b    	stx	$9B9B,y
    3b9a:	9b 9c 9c    	stx	$9C9C,y
    3b9d:	9c 9c 9d    	stz	$9D9C
    3ba0:	9d 9d 9d    	sta	$9D9D,x
    3ba3:	9e 9e 9e    	stz	$9E9E,x
    3ba6:	9e 9f 9f    	stz	$9F9F,x
    3ba9:	9f 9f a0    	bbs1	$9F,$3B4C
    3bac:	a0 a0       	ldy	#$A0
    3bae:	a1 a1       	lda	($A1,x)
    3bb0:	a1 a1       	lda	($A1,x)
    3bb2:	a2 a2       	ldx	#$A2
    3bb4:	a2 a2       	ldx	#$A2
    3bb6:	a3 a3       	ldz	#$A3
    3bb8:	a3 a3       	ldz	#$A3
    3bba:	a4 a4       	ldy	$A4
    3bbc:	a4 a4       	ldy	$A4
    3bbe:	a5 a5       	lda	$A5
    3bc0:	a5 a5       	lda	$A5
    3bc2:	a6 a6       	ldx	$A6
    3bc4:	a6 a6       	ldx	$A6
    3bc6:	a7 a7       	smb2	$A7
    3bc8:	a7 a7       	smb2	$A7
    3bca:	a8          	tay	
    3bcb:	a8          	tay	
    3bcc:	a8          	tay	
    3bcd:	a8          	tay	
    3bce:	a9 a9       	lda	#$A9
    3bd0:	a9 a9       	lda	#$A9
    3bd2:	aa          	tax	
    3bd3:	aa          	tax	
    3bd4:	aa          	tax	
    3bd5:	aa          	tax	
    3bd6:	ab ab ab    	ldz	$ABAB
    3bd9:	ac ac ac    	ldy	$ACAC
    3bdc:	ac ad ad    	ldy	$ADAD
    3bdf:	ad ad ae    	lda	$AEAD
    3be2:	ae ae ae    	ldx	$AEAE
    3be5:	af af af    	bbs2	$AF,$3B97
    3be8:	af b0 b0    	bbs2	$B0,$3B9B
    3beb:	b0 b0       	bcs	$3B9D
    3bed:	b1 b1       	lda	($B1),y
    3bef:	b1 b1       	lda	($B1),y
    3bf1:	b2 b2       	lda	($B2),z
    3bf3:	b2 b2       	lda	($B2),z
    3bf5:	b3 b3 b3    	bcs	$EFAB
    3bf8:	b3 b4 b4    	bcs	$F0AF
    3bfb:	b4 b4       	ldy	$B4,x
    3bfd:	b5 b5       	lda	$B5,x
    3bff:	b5 b6       	lda	$B6,x
    3c01:	b6 b6       	ldx	$B6,y
    3c03:	b6 b7       	ldx	$B7,y
    3c05:	b7 b7       	smb3	$B7
    3c07:	b7 b8       	smb3	$B8
    3c09:	b8          	clv	
    3c0a:	b8          	clv	
    3c0b:	b8          	clv	
    3c0c:	b9 b9 b9    	lda	$B9B9,y
    3c0f:	b9 ba ba    	lda	$BABA,y
    3c12:	ba          	tsx	
    3c13:	ba          	tsx	
    3c14:	bb bb bb    	ldz	$BBBB,x
    3c17:	bb bc bc    	ldz	$BCBC,x
    3c1a:	bc bc bd    	ldy	$BDBC,x
    3c1d:	bd bd bd    	lda	$BDBD,x
    3c20:	be be be    	ldx	$BEBE,y
    3c23:	be bf bf    	ldx	$BFBF,y
    3c26:	bf bf c0    	bbs3	$BF,$3BE9
    3c29:	c0 c0       	cpy	#$C0
    3c2b:	c1 c1       	cmp	($C1,x)
    3c2d:	c1 c1       	cmp	($C1,x)
    3c2f:	c2 c2       	cpz	#$C2
    3c31:	c2 c2       	cpz	#$C2
    3c33:	c3 c3       	dew	$C3
    3c35:	c3 c3       	dew	$C3
    3c37:	c4 c4       	cpy	$C4
    3c39:	c4 c4       	cpy	$C4
    3c3b:	c5 c5       	cmp	$C5
    3c3d:	c5 c5       	cmp	$C5
    3c3f:	c6 c6       	dec	$C6
    3c41:	c6 c6       	dec	$C6
    3c43:	c7 c7       	smb4	$C7
    3c45:	c7 c7       	smb4	$C7
    3c47:	c8          	iny	
    3c48:	c8          	iny	
    3c49:	c8          	iny	
    3c4a:	c8          	iny	
    3c4b:	c9 c9       	cmp	#$C9
    3c4d:	c9 c9       	cmp	#$C9
    3c4f:	ca          	dex	
    3c50:	ca          	dex	
    3c51:	ca          	dex	
    3c52:	ca          	dex	
    3c53:	cb cb cb    	asw	$CBCB
    3c56:	cc cc cc    	cpy	$CCCC
    3c59:	cc cd cd    	cpy	$CDCD
    3c5c:	cd cd ce    	cmp	$CECD
    3c5f:	ce ce ce    	dec	$CECE
    3c62:	cf cf cf    	bbs4	$CF,$3C34
    3c65:	cf d0 d0    	bbs4	$D0,$3C38
    3c68:	d0 d0       	bne	$3C3A
    3c6a:	d1 d1       	cmp	($D1),y
    3c6c:	d1 d1       	cmp	($D1),y
    3c6e:	d2 d2       	cmp	($D2),z
    3c70:	d2 d2       	cmp	($D2),z
    3c72:	d3 d3 d3    	bne	$1048
    3c75:	d3 d4 d4    	bne	$114C
    3c78:	d4 d4       	cpz	$D4
    3c7a:	d5 d5       	cmp	$D5,x
    3c7c:	d5 d6       	cmp	$D6,x
    3c7e:	d6 d6       	dec	$D6,x
    3c80:	d6 d7       	dec	$D7,x
    3c82:	d7 d7       	smb5	$D7
    3c84:	d7 d8       	smb5	$D8
    3c86:	d8          	cld	
    3c87:	d8          	cld	
    3c88:	d8          	cld	
    3c89:	d9 d9 d9    	cmp	$D9D9,y
    3c8c:	d9 da da    	cmp	$DADA,y
    3c8f:	da          	phx	
    3c90:	da          	phx	
    3c91:	db          	phz	
    3c92:	db          	phz	
    3c93:	db          	phz	
    3c94:	db          	phz	
    3c95:	dc dc dc    	cpz	$DCDC
    3c98:	dc dd dd    	cpz	$DDDD
    3c9b:	dd dd de    	cmp	$DEDD,x
    3c9e:	de de de    	dec	$DEDE,x
    3ca1:	df df df    	bbs5	$DF,$3C83
    3ca4:	df e0 e0    	bbs5	$E0,$3C87
    3ca7:	e0 e1       	cpx	#$E1
    3ca9:	e1 e1       	sbc	($E1,x)
    3cab:	e1 e2       	sbc	($E2,x)
    3cad:	e2 e2       	lda	($E2,sp),y
    3caf:	e2 e3       	lda	($E3,sp),y
    3cb1:	e3 e3       	inw	$E3
    3cb3:	e3 e4       	inw	$E4
    3cb5:	e4 e4       	cpx	$E4
    3cb7:	e4 e5       	cpx	$E5
    3cb9:	e5 e5       	sbc	$E5
    3cbb:	e5 e6       	sbc	$E6
    3cbd:	e6 e6       	inc	$E6
    3cbf:	e6 e7       	inc	$E7
    3cc1:	e7 e7       	smb6	$E7
    3cc3:	e7 e8       	smb6	$E8
    3cc5:	e8          	inx	
    3cc6:	e8          	inx	
    3cc7:	e8          	inx	
    3cc8:	e9 e9       	sbc	#$E9
    3cca:	e9 e9       	sbc	#$E9
    3ccc:	ea          	eom	
    3ccd:	ea          	eom	
    3cce:	ea          	eom	
    3ccf:	ea          	eom	
    3cd0:	eb eb eb    	row	$EBEB
    3cd3:	ec ec ec    	cpx	$ECEC
    3cd6:	ec ed ed    	cpx	$EDED
    3cd9:	ed ed ee    	sbc	$EEED
    3cdc:	ee ee ee    	inc	$EEEE
    3cdf:	ef ef ef    	bbs6	$EF,$3CD1
    3ce2:	ef f0 f0    	bbs6	$F0,$3CD5
    3ce5:	f0 f0       	beq	$3CD7
    3ce7:	f1 f1       	sbc	($F1),y
    3ce9:	f1 f1       	sbc	($F1),y
    3ceb:	f2 f2       	sbc	($F2),z
    3ced:	f2 f2       	sbc	($F2),z
    3cef:	f3 f3 f3    	beq	$30E5
    3cf2:	f3 f4 f4    	beq	$31E9
    3cf5:	f4 f4 f5    	phw	#$F5F4
    3cf8:	f5 f5       	sbc	$F5,x
    3cfa:	f6 f6       	inc	$F6,x
    3cfc:	f6 f6       	inc	$F6,x
    3cfe:	f7 f7       	smb7	$F7
    3d00:	f7 f7       	smb7	$F7
    3d02:	f8          	sed	
    3d03:	f8          	sed	
    3d04:	f8          	sed	
    3d05:	f8          	sed	
    3d06:	f9 f9 f9    	sbc	$F9F9,y
    3d09:	f9 fa fa    	sbc	$FAFA,y
    3d0c:	fa          	plx	
    3d0d:	fa          	plx	
    3d0e:	fb          	plz	
    3d0f:	fb          	plz	
    3d10:	fb          	plz	
    3d11:	fb          	plz	
    3d12:	fc fc fc    	phw	$FCFC
    3d15:	fc fd fd    	phw	$FDFD
    3d18:	fd fd fe    	sbc	$FEFD,x
    3d1b:	fe fe fe    	inc	$FEFE,x
    3d1e:	ff ff ff    	bbs7	$FF,$3D20
    3d21:	ff ff 00    	bbs7	$FF,$3D24
    3d24:	00          	brk	
    3d25:	00          	brk	
    3d26:	00          	brk	
    3d27:	00          	brk	
    3d28:	00          	brk	
    3d29:	00          	brk	
    3d2a:	00          	brk	
    3d2b:	00          	brk	
    3d2c:	00          	brk	
    3d2d:	00          	brk	
    3d2e:	00          	brk	
    3d2f:	00          	brk	
    3d30:	00          	brk	
    3d31:	00          	brk	
    3d32:	00          	brk	
    3d33:	00          	brk	
    3d34:	00          	brk	
    3d35:	00          	brk	
    3d36:	00          	brk	
    3d37:	00          	brk	
    3d38:	00          	brk	
    3d39:	00          	brk	
    3d3a:	00          	brk	
    3d3b:	00          	brk	
    3d3c:	00          	brk	
    3d3d:	00          	brk	
    3d3e:	00          	brk	
    3d3f:	00          	brk	
    3d40:	00          	brk	
    3d41:	00          	brk	
    3d42:	00          	brk	
    3d43:	00          	brk	
    3d44:	00          	brk	
    3d45:	00          	brk	
    3d46:	00          	brk	
    3d47:	00          	brk	
    3d48:	00          	brk	
    3d49:	00          	brk	
    3d4a:	00          	brk	
    3d4b:	00          	brk	
    3d4c:	00          	brk	
    3d4d:	00          	brk	
    3d4e:	00          	brk	
    3d4f:	00          	brk	
    3d50:	00          	brk	
    3d51:	00          	brk	
    3d52:	00          	brk	
    3d53:	00          	brk	
    3d54:	00          	brk	
    3d55:	00          	brk	
    3d56:	00          	brk	
    3d57:	00          	brk	
    3d58:	00          	brk	
    3d59:	00          	brk	
    3d5a:	00          	brk	
    3d5b:	00          	brk	
    3d5c:	00          	brk	
    3d5d:	00          	brk	
    3d5e:	00          	brk	
    3d5f:	00          	brk	
    3d60:	00          	brk	
    3d61:	00          	brk	
    3d62:	00          	brk	
    3d63:	00          	brk	
    3d64:	00          	brk	
    3d65:	00          	brk	
    3d66:	00          	brk	
    3d67:	00          	brk	
    3d68:	00          	brk	
    3d69:	00          	brk	
    3d6a:	00          	brk	
    3d6b:	00          	brk	
    3d6c:	00          	brk	
    3d6d:	00          	brk	
    3d6e:	00          	brk	
    3d6f:	00          	brk	
    3d70:	00          	brk	
    3d71:	00          	brk	
    3d72:	00          	brk	
    3d73:	00          	brk	
    3d74:	00          	brk	
    3d75:	00          	brk	
    3d76:	00          	brk	
    3d77:	00          	brk	
    3d78:	00          	brk	
    3d79:	00          	brk	
    3d7a:	00          	brk	
    3d7b:	00          	brk	
    3d7c:	00          	brk	
    3d7d:	00          	brk	
    3d7e:	00          	brk	
    3d7f:	00          	brk	
    3d80:	00          	brk	
    3d81:	00          	brk	
    3d82:	00          	brk	
    3d83:	00          	brk	
    3d84:	00          	brk	
    3d85:	00          	brk	
    3d86:	00          	brk	
    3d87:	00          	brk	
    3d88:	00          	brk	
    3d89:	00          	brk	
    3d8a:	00          	brk	
    3d8b:	00          	brk	
    3d8c:	00          	brk	
    3d8d:	00          	brk	
    3d8e:	00          	brk	
    3d8f:	00          	brk	
    3d90:	24 03       	bit	$03
    3d92:	48          	pha	
    3d93:	06 6a       	asl	$6A
    3d95:	09 8c       	ora	#$8C
    3d97:	0c ab 0f    	tsb	$0FAB
    3d9a:	c8          	iny	
    3d9b:	12 e2       	ora	($E2),z
    3d9d:	15 f9       	ora	$F9,x
    3d9f:	18          	clc	
    3da0:	0c 1c 1a    	tsb	$1A1C
    3da3:	1f 23 22    	bbr1	$23,$3DC8
    3da6:	28          	plp	
    3da7:	25 26       	and	$26
    3da9:	28          	plp	
    3daa:	1f 2b 11    	bbr1	$2B,$3DBE
    3dad:	2e fb 30    	rol	$30FB
    3db0:	df 33 ba    	bbs5	$33,$3D6D
    3db3:	36 8c       	rol	$8C,x
    3db5:	39 56 3c    	and	$3C56,y
    3db8:	16 3f       	asl	$3F,x
    3dba:	cd 41 7a    	cmp	$7A41
    3dbd:	44 1c       	asr	$1C
    3dbf:	47 b4       	rmb4	$B4
    3dc1:	49 3f       	eor	#$3F
    3dc3:	4c bf 4e    	jmp	$4EBF
    3dc6:	33 51 9b    	bmi	$D91A
    3dc9:	53 f5 55    	bvc	$93C1
    3dcc:	42          	neg	a
    3dcd:	58          	cli	
    3dce:	82 5a       	sta	($5A,sp),y
    3dd0:	b3 5c d7    	bcs	$152F
    3dd3:	5e eb 60    	lsr	$60EB,x
    3dd6:	f1 62       	sbc	($62),y
    3dd8:	e8          	inx	
    3dd9:	64 cf       	stz	$CF
    3ddb:	66 a6       	ror	$A6
    3ddd:	68          	pla	
    3dde:	6d 6a 23    	adc	$236A
    3de1:	6c c9 6d    	jmp	($6DC9)
    3de4:	5e 6f e2    	lsr	$E26F,x
    3de7:	70 55       	bvs	$3E3E
    3de9:	72 b6       	adc	($B6),z
    3deb:	73 05 75    	bvs	$B2F3
    3dee:	42          	neg	a
    3def:	76 6c       	ror	$6C,x
    3df1:	77 84       	rmb7	$84
    3df3:	78          	sei	
    3df4:	89 79       	bit	#$79
    3df6:	7c 7a 5b    	jmp	($5B7A,x)
    3df9:	7b          	tba	
    3dfa:	28          	plp	
    3dfb:	7c e0 7c    	jmp	($7CE0,x)
    3dfe:	86 7d       	stx	$7D
    3e00:	17 7e       	rmb1	$7E
    3e02:	95 7e       	sta	$7E,x
    3e04:	fe 7e 54    	inc	$547E,x
    3e07:	7f 95 7f    	bbr7	$95,$3E89
    3e0a:	c2 7f       	cpz	#$7F
    3e0c:	da          	phx	
    3e0d:	7f ff 7f    	bbr7	$FF,$3E8F
    3e10:	da          	phx	
    3e11:	7f c2 7f    	bbr7	$C2,$3E93
    3e14:	95 7f       	sta	$7F,x
    3e16:	54 7f       	asr	$7F,x
    3e18:	fe 7e 95    	inc	$957E,x
    3e1b:	7e 17 7e    	ror	$7E17,x
    3e1e:	86 7d       	stx	$7D
    3e20:	e0 7c       	cpx	#$7C
    3e22:	28          	plp	
    3e23:	7c 5b 7b    	jmp	($7B5B,x)
    3e26:	7c 7a 89    	jmp	($897A,x)
    3e29:	79 84 78    	adc	$7884,y
    3e2c:	6c 77 42    	jmp	($4277)
    3e2f:	76 05       	ror	$05,x
    3e31:	75 b6       	adc	$B6,x
    3e33:	73 55 72    	bvs	$B08B
    3e36:	e2 70       	lda	($70,sp),y
    3e38:	5e 6f c9    	lsr	$C96F,x
    3e3b:	6d 23 6c    	adc	$6C23
    3e3e:	6d 6a a6    	adc	$A66A
    3e41:	68          	pla	
    3e42:	cf 66 e8    	bbs4	$66,$3E2D
    3e45:	64 f1       	stz	$F1
    3e47:	62 eb       	rts	#$EB
    3e49:	60          	rts	
    3e4a:	d7 5e       	smb5	$5E
    3e4c:	b3 5c 82    	bcs	$C0AB
    3e4f:	5a          	phy	
    3e50:	42          	neg	a
    3e51:	58          	cli	
    3e52:	f5 55       	sbc	$55,x
    3e54:	9b 53 33    	stx	$3353,y
    3e57:	51 bf       	eor	($BF),y
    3e59:	4e 3f 4c    	lsr	$4C3F
    3e5c:	b4 49       	ldy	$49,x
    3e5e:	1c 47 7a    	trb	$7A47
    3e61:	44 cd       	asr	$CD
    3e63:	41 16       	eor	($16,x)
    3e65:	3f 56 3c    	bbr3	$56,$3EA4
    3e68:	8c 39 ba    	sty	$BA39
    3e6b:	36 df       	rol	$DF,x
    3e6d:	33 fb 30    	bmi	$6F6B
    3e70:	11 2e       	ora	($2E),y
    3e72:	1f 2b 26    	bbr1	$2B,$3E9B
    3e75:	28          	plp	
    3e76:	28          	plp	
    3e77:	25 23       	and	$23
    3e79:	22 1a 1f    	jsr	($1F1A)
    3e7c:	0c 1c f9    	tsb	$F91C
    3e7f:	18          	clc	
    3e80:	e2 15       	lda	($15,sp),y
    3e82:	c8          	iny	
    3e83:	12 ab       	ora	($AB),z
    3e85:	0f 8c 0c    	bbr0	$8C,$3E94
    3e88:	6a          	ror	a
    3e89:	09 48       	ora	#$48
    3e8b:	06 24       	asl	$24
    3e8d:	03          	see	
    3e8e:	00          	brk	
    3e8f:	00          	brk	
    3e90:	dc fc b8    	cpz	$B8FC
    3e93:	f9 96 f6    	sbc	$F696,y
    3e96:	74 f3       	stz	$F3,x
    3e98:	55 f0       	eor	$F0,x
    3e9a:	38          	sec	
    3e9b:	ed 1e ea    	sbc	$EA1E
    3e9e:	07 e7       	rmb0	$E7
    3ea0:	f4 e3 e6    	phw	#$E6E3
    3ea3:	e0 dd       	cpx	#$DD
    3ea5:	dd d8 da    	cmp	$DAD8,x
    3ea8:	da          	phx	
    3ea9:	d7 e1       	smb5	$E1
    3eab:	d4 ef       	cpz	$EF
    3ead:	d1 05       	cmp	($05),y
    3eaf:	cf 21 cc    	bbs4	$21,$3E7E
    3eb2:	46 c9       	lsr	$C9
    3eb4:	74 c6       	stz	$C6,x
    3eb6:	aa          	tax	
    3eb7:	c3 ea       	dew	$EA
    3eb9:	c0 33       	cpy	#$33
    3ebb:	be 86 bb    	ldx	$BB86,y
    3ebe:	e4 b8       	cpx	$B8
    3ec0:	4c b6 c1    	jmp	$C1B6
    3ec3:	b3 41 b1    	bcs	$F007
    3ec6:	cd ae 65    	cmp	$65AE
    3ec9:	ac 0b aa    	ldy	$AA0B
    3ecc:	be a7 7e    	ldx	$7EA7,y
    3ecf:	a5 4d       	lda	$4D
    3ed1:	a3 29       	ldz	#$29
    3ed3:	a1 15       	lda	($15,x)
    3ed5:	9f 0f 9d    	bbs1	$0F,$3E75
    3ed8:	18          	clc	
    3ed9:	9b 31 99    	stx	$9931,y
    3edc:	5a          	phy	
    3edd:	97 93       	smb1	$93
    3edf:	95 dd       	sta	$DD,x
    3ee1:	93 37 92    	bcc	$D11B
    3ee4:	a2 90       	ldx	#$90
    3ee6:	1e 8f ab    	asl	$AB8F,x
    3ee9:	8d 4a 8c    	sta	$8C4A
    3eec:	fb          	plz	
    3eed:	8a          	txa	
    3eee:	be 89 94    	ldx	$9489,y
    3ef1:	88          	dey	
    3ef2:	7c 87 77    	jmp	($7787,x)
    3ef5:	86 84       	stx	$84
    3ef7:	85 a5       	sta	$A5
    3ef9:	84 d8       	sty	$D8
    3efb:	83 20 83    	bra	$C21E
    3efe:	7a          	ply	
    3eff:	82 e9       	sta	($E9,sp),y
    3f01:	81 6b       	sta	($6B,x)
    3f03:	81 02       	sta	($02,x)
    3f05:	81 ac       	sta	($AC,x)
    3f07:	80 6b       	bra	$3F74
    3f09:	80 3e       	bra	$3F49
    3f0b:	80 26       	bra	$3F33
    3f0d:	80 01       	bra	$3F10
    3f0f:	80 26       	bra	$3F37
    3f11:	80 3e       	bra	$3F51
    3f13:	80 6b       	bra	$3F80
    3f15:	80 ac       	bra	$3EC3
    3f17:	80 02       	bra	$3F1B
    3f19:	81 6b       	sta	($6B,x)
    3f1b:	81 e9       	sta	($E9,x)
    3f1d:	81 7a       	sta	($7A,x)
    3f1f:	82 20       	sta	($20,sp),y
    3f21:	83 d8 83    	bra	$C2FC
    3f24:	a5 84       	lda	$84
    3f26:	84 85       	sty	$85
    3f28:	77 86       	rmb7	$86
    3f2a:	7c 87 94    	jmp	($9487,x)
    3f2d:	88          	dey	
    3f2e:	be 89 fb    	ldx	$FB89,y
    3f31:	8a          	txa	
    3f32:	4a          	lsr	a
    3f33:	8c ab 8d    	sty	$8DAB
    3f36:	1e 8f a2    	asl	$A28F,x
    3f39:	90 37       	bcc	$3F72
    3f3b:	92 dd       	sta	($DD),z
    3f3d:	93 93 95    	bcc	$D4D3
    3f40:	5a          	phy	
    3f41:	97 31       	smb1	$31
    3f43:	99 18 9b    	sta	$9B18,y
    3f46:	0f 9d 15    	bbr0	$9D,$3F5E
    3f49:	9f 29 a1    	bbs1	$29,$3EED
    3f4c:	4d a3 7e    	eor	$7EA3
    3f4f:	a5 be       	lda	$BE
    3f51:	a7 0b       	smb2	$0B
    3f53:	aa          	tax	
    3f54:	65 ac       	adc	$AC
    3f56:	cd ae 41    	cmp	$41AE
    3f59:	b1 c1       	lda	($C1),y
    3f5b:	b3 4c b6    	bcs	$F5AA
    3f5e:	e4 b8       	cpx	$B8
    3f60:	86 bb       	stx	$BB
    3f62:	33 be ea    	bmi	$2A23
    3f65:	c0 aa       	cpy	#$AA
    3f67:	c3 74       	dew	$74
    3f69:	c6 46       	dec	$46
    3f6b:	c9 21       	cmp	#$21
    3f6d:	cc 05 cf    	cpy	$CF05
    3f70:	ef d1 e1    	bbs6	$D1,$3F54
    3f73:	d4 da       	cpz	$DA
    3f75:	d7 d8       	smb5	$D8
    3f77:	da          	phx	
    3f78:	dd dd e6    	cmp	$E6DD,x
    3f7b:	e0 f4       	cpx	#$F4
    3f7d:	e3 07       	inw	$07
    3f7f:	e7 1e       	smb6	$1E
    3f81:	ea          	eom	
    3f82:	38          	sec	
    3f83:	ed 55 f0    	sbc	$F055
    3f86:	74 f3       	stz	$F3,x
    3f88:	96 f6       	stx	$F6,y
    3f8a:	b8          	clv	
    3f8b:	f9 dc fc    	sbc	$FCDC,y
